(dp1
S'output'
p2
S"<type 'exceptions.NameError'> name 'is_mobile' is not defined"
p3
sS'layer'
p4
S'/home/marco/trabajo/experimental/web2py/applications/distribuidora/views/default/index.html'
p5
sS'code'
p6
S'response.write(\'<!DOCTYPE html>\\n<html lang="en">\\n  <head>\\n\\n    <!-- start: Meta -->\\n    <meta charset="utf-8">\\n    <title>FreeME:BOOTSTRAP THEME by BootstrapMaster</title> \\n    <meta name="description" content="FreeME:Bootstrap Theme"/>\\n    <meta name="keywords" content="Template, Theme, web, html5, css3" />\\n    <meta name="author" content="\\xc5\\x81ukasz Holeczek from creativeLabs"/>\\n    <!-- end: Meta -->\\n    \\n    <!-- start: Mobile Specific -->\\n    <meta name="viewport" content="width=device-width, initial-scale=1, maximum-scale=1">\\n    <!-- end: Mobile Specific -->\\n    \\n    <!-- start: Facebook Open Graph -->\\n    <meta property="og:title" content=""/>\\n    <meta property="og:description" content=""/>\\n    <meta property="og:type" content=""/>\\n    <meta property="og:url" content=""/>\\n    <meta property="og:image" content=""/>\\n    <!-- end: Facebook Open Graph -->\\n\\n    <!-- start: CSS -->\\n    <link href="\', escape=False)\nresponse.write(URL(\'static\',\'custom/css/bootstrap.css\'))\nresponse.write(\'" rel="stylesheet">\\n    <link href="\', escape=False)\nresponse.write(URL(\'static\',\'custom/css/bootstrap-responsive.css\'))\nresponse.write(\'" rel="stylesheet">\\n    <link href="\', escape=False)\nresponse.write(URL(\'static\',\'custom/css/style.css\'))\nresponse.write(\'" rel="stylesheet">\\n    <link rel="stylesheet" type="text/css" href="http://fonts.googleapis.com/css?family=Droid+Sans:400,700">\\n    <link rel="stylesheet" type="text/css" href="http://fonts.googleapis.com/css?family=Droid+Serif">\\n    <link rel="stylesheet" type="text/css" href="http://fonts.googleapis.com/css?family=Boogaloo">\\n    <link rel="stylesheet" type="text/css" href="http://fonts.googleapis.com/css?family=Economica:700,400italic">\\n    <!-- end: CSS -->\\n\\n    <!-- Le HTML5 shim, for IE6-8 support of HTML5 elements -->\\n    <!--[if lt IE 9]>\\n\\t<script src="http://html5shim.googlecode.com/svn/trunk/html5.js"></script>\\n\\t<![endif]-->\\n\\n  </head>\\n  <body>\\n    \\n    <!--start: Wrapper -->\\n    <div id="wrapper">\\n      \\n      <!--start: Container -->\\n      <div class="container">\\n\\t\\n\\t\\n\\t<!--start: Header -->\\n\\t<header>\\n\\t  \\n\\t  <!--start: Row -->\\n\\t  <div class="row">\\n\\t    \\n\\t    <!--start: Logo -->\\n\\t    <div class="logo span4">\\n\\t      <a class="brand" href="#"><img src="/distribuidora/static/custom/img/logo.png"></a>\\n\\t    </div>\\n\\t    <!--end: Logo -->\\n\\t    \\n\\t    <!--start: Social Links -->\\n\\t    <div class="span8">\\n\\t      <div id="social-links">\\n\\t\\t<ul class="social-small-grid">\\n\\t\\t  <li>\\n\\t\\t    <div class="social-small-item">\\t\\t\\t\\t\\n\\t\\t      <div class="social-small-info-wrap">\\n\\t\\t\\t<div class="social-small-info">\\n\\t\\t\\t  <div class="social-small-info-front social-small-twitter">\\n\\t\\t\\t    <a href="http://twitter.com"></a>\\n\\t\\t\\t  </div>\\n\\t\\t\\t  <div class="social-small-info-back social-small-twitter-hover">\\n\\t\\t\\t    <a href="http://twitter.com"></a>\\n\\t\\t\\t  </div>\\t\\n\\t\\t\\t</div>\\n\\t\\t      </div>\\n\\t\\t    </div>\\n\\t\\t  </li>\\n\\t\\t  <li>\\n\\t\\t    <div class="social-small-item">\\t\\t\\t\\t\\n\\t\\t      <div class="social-small-info-wrap">\\n\\t\\t\\t<div class="social-small-info">\\n\\t\\t\\t  <div class="social-small-info-front social-small-facebook">\\n\\t\\t\\t    <a href="http://facebook.com"></a>\\n\\t\\t\\t  </div>\\n\\t\\t\\t  <div class="social-small-info-back social-small-facebook-hover">\\n\\t\\t\\t    <a href="http://facebook.com"></a>\\n\\t\\t\\t  </div>\\t\\n\\t\\t\\t</div>\\n\\t\\t      </div>\\n\\t\\t    </div>\\n\\t\\t  </li>\\n\\t\\t  <li>\\n\\t\\t    <div class="social-small-item">\\t\\t\\t\\t\\n\\t\\t      <div class="social-small-info-wrap">\\n\\t\\t\\t<div class="social-small-info">\\n\\t\\t\\t  <div class="social-small-info-front social-small-dribbble">\\n\\t\\t\\t    <a href="http://dribbble.com"></a>\\n\\t\\t\\t  </div>\\n\\t\\t\\t  <div class="social-small-info-back social-small-dribbble-hover">\\n\\t\\t\\t    <a href="http://dribbble.com"></a>\\n\\t\\t\\t  </div>\\t\\n\\t\\t\\t</div>\\n\\t\\t      </div>\\n\\t\\t    </div>\\n\\t\\t  </li>\\n\\t\\t  <li>\\n\\t\\t    <div class="social-small-item">\\t\\t\\t\\t\\n\\t\\t      <div class="social-small-info-wrap">\\n\\t\\t\\t<div class="social-small-info">\\n\\t\\t\\t  <div class="social-small-info-front social-small-flickr">\\n\\t\\t\\t    <a href="http://flickr.com"></a>\\n\\t\\t\\t  </div>\\n\\t\\t\\t  <div class="social-small-info-back social-small-flickr-hover">\\n\\t\\t\\t    <a href="http://flickr.com"></a>\\n\\t\\t\\t  </div>\\t\\n\\t\\t\\t</div>\\n\\t\\t      </div>\\n\\t\\t    </div>\\n\\t\\t  </li>\\n\\t\\t</ul>\\n\\t      </div>\\n\\t    </div>\\n\\t    <!--end: Social Links -->\\n\\t    \\n\\t  </div>\\n\\t  <!--end: Row -->\\n\\t  \\n\\t</header>\\n\\t<!--end: Header-->\\n\\t\\n\\t<!--start: Navigation-->\\t\\n\\t<div class="navbar navbar-inverse">\\n    \\t  <div class="navbar-inner">\\n            <div class="container">\\n              <a class="btn btn-navbar" data-toggle="collapse" data-target=".nav-collapse">\\n            \\t<span class="icon-bar"></span>\\n            \\t<span class="icon-bar"></span>\\n            \\t<span class="icon-bar"></span>\\n              </a>\\n\\t      <div class="\', escape=False)\nresponse.write(\'nav-collapse\' if is_mobile else \'nav\')\nresponse.write(\'">\\n\\t\\t\', escape=False)\nif response.menu:\n    response.write(\'\\n\\t\\t\', escape=False)\n    response.write(MENU(response.menu, _class=\'mobile-menu nav\' if is_mobile else \'nav\',mobile=is_mobile,li_class=\'dropdown\',ul_class=\'dropdown-menu\'))\n    response.write(\'\\n\\t\\t\', escape=False)\n    pass\nresponse.write(\'\\n              </div><!--/.nav-collapse -->\\n              <!-- <div class="nav-collapse collapse"> -->\\n              <!-- \\t<\\\\!-- <ul class="nav"> -\\\\-> -->\\n              <!-- \\t<\\\\!--   <li class="active"><a href="index.html">Home</a></li> -\\\\-> -->\\n              <!-- \\t<\\\\!--   <li><a href="about.html">About</a></li> -\\\\-> -->\\n\\t      <!-- \\t<\\\\!--   <li><a href="services.html">Services</a></li> -\\\\-> -->\\n\\t      <!-- \\t<\\\\!--   <li><a href="pricing.html">Pricing</a></li> -\\\\-> -->\\n              <!-- \\t<\\\\!--   <li><a href="contact.html">Contact</a></li> -\\\\-> -->\\n              <!-- \\t<\\\\!--   <li class="dropdown"> -\\\\-> -->\\n              <!--   <\\\\!--     <a href="#" class="dropdown-toggle" data-toggle="dropdown">Dropdown <b class="caret"></b></a> -\\\\-> -->\\n              <!--   <\\\\!--     <ul class="dropdown-menu"> -\\\\-> -->\\n              <!--   <\\\\!--       <li><a href="#">Action</a></li> -\\\\-> -->\\n              <!--   <\\\\!--       <li><a href="#">Another action</a></li> -\\\\-> -->\\n              <!--   <\\\\!--       <li><a href="#">Something else here</a></li> -\\\\-> -->\\n              <!--   <\\\\!--       <li class="divider"></li> -\\\\-> -->\\n              <!--   <\\\\!--       <li class="nav-header">Nav header</li> -\\\\-> -->\\n              <!--   <\\\\!--       <li><a href="#">Separated link</a></li> -\\\\-> -->\\n              <!--   <\\\\!--       <li><a href="#">One more separated link</a></li> -\\\\-> -->\\n              <!--   <\\\\!--     </ul> -\\\\-> -->\\n              <!-- \\t<\\\\!--   </li> -\\\\-> -->\\n              <!-- \\t<\\\\!-- </ul> -\\\\-> -->\\n\\t      <!-- \\t\', escape=False)\nresponse.write(MENU(response.menu, ul_class="nav", li_class="navbar"))\nresponse.write(\' -->\\n              <!-- </div> -->\\n            </div>\\n      \\t  </div>\\n    \\t</div>\\n\\t<!--end: Navigation-->\\n\\t\\n      </div>\\n      <!--end: Container-->\\n      \\n      <!--start: Container -->\\n      <div class="container">\\n\\t\\n\\t<!-- start: Flexslider -->\\n\\t<div class="slider">\\n\\t  \\n\\t  <div class="flexslider">\\n\\t    <ul class="slides">\\n\\n\\t      <li>\\n\\t\\t<img src="/distribuidora/static/custom/img/slider/slider1.jpg" alt="" />\\n\\t\\t<div class="slide-caption n hidden-phone">\\n\\t\\t  <h3>This is a caption</h3>\\n\\t\\t  <p>\\n\\t\\t    Lorem ipsum dolor sit amet, consectetuer adipiscing elit, sed diam nonummy nibh euismod tincidunt ut laoreet dolore magna aliquam erat volutpat. Ut wisi enim ad minim veniam, quis nostrud exerci tation ullamcorper suscipit lobortis nisl ut aliquip ex ea commodo consequat.\\n\\t\\t  </p>\\n\\t\\t</div>\\n\\t      </li>\\n\\n\\t      <li>\\n\\t\\t<img src="/distribuidora/static/custom/img/slider/slider2.jpg" alt="" />\\n\\t\\t<div class="slide-caption hidden-phone">\\n\\t\\t  <h3>This is a caption</h3>\\n\\t\\t  <p>\\n\\t\\t    Lorem ipsum dolor sit amet, consectetuer adipiscing elit, sed diam nonummy nibh euismod tincidunt ut laoreet dolore magna aliquam erat volutpat. Ut wisi enim ad minim veniam, quis nostrud exerci tation ullamcorper suscipit lobortis nisl ut aliquip ex ea commodo consequat.\\n\\t\\t  </p>\\n\\t\\t</div>\\n\\t      </li>\\n\\n\\t      <li>\\n\\t\\t<img src="/distribuidora/static/custom/img/slider/slider3.jpg" alt="" />\\n\\t      </li>\\n\\n\\t    </ul>\\n\\t  </div>\\n\\t  \\n\\t</div>\\n\\t<!-- end: Flexslider -->\\n\\n      \\t<!-- start: Hero Unit - Main hero unit for a primary marketing message or call to action -->\\n      \\t<div class="hero-unit">\\n          <p>\\n\\t    This is a template for a simple marketing or informational website. It includes a large callout called the hero unit and three supporting pieces of content. Use it as a starting point to create something more unique.\\n\\t  </p>\\n          <p><a class="btn btn-success btn-large">Learn more &raquo;</a></p>\\n      \\t</div>\\n\\t<!-- end: Hero Unit -->\\n\\n      \\t<!-- start: Row -->\\n      \\t<div class="row">\\n\\t  \\n          <div class="span4">\\n            <div class="icons-box">\\n\\t      <i class="ico-ok circle big"></i>\\n\\t      <div class="title"><h3>Easy to use</h3></div>\\n\\t      <p>\\n\\t\\tLorem ipsum dolor sit amet, consectetuer adipiscing elit, sed diam nonummy nibh euismod tincidunt ut laoreet dolore magna aliquam erat volutpat.\\n\\t      </p>\\n\\t      <div class="clear"></div>\\n\\t    </div>\\n          </div>\\n\\n          <div class="span4">\\n            <div class="icons-box">\\n\\t      <i class="ico-ipad circle big"></i>\\n\\t      <div class="title"><h3>Responsive</h3></div>\\n\\t      <p>\\n\\t\\tLorem ipsum dolor sit amet, consectetuer adipiscing elit, sed diam nonummy nibh euismod tincidunt ut laoreet dolore magna aliquam erat volutpat.\\n\\t      </p>\\n\\t      <div class="clear"></div>\\n\\t    </div>\\n          </div>\\n\\n          <div class="span4">\\n            <div class="icons-box">\\n\\t      <i class="ico-heart circle big"></i>\\n\\t      <div class="title"><h3>User friendly</h3></div>\\n\\t      <p>\\n\\t\\tLorem ipsum dolor sit amet, consectetuer adipiscing elit, sed diam nonummy nibh euismod tincidunt ut laoreet dolore magna aliquam erat volutpat.\\n\\t      </p>\\n\\t      <div class="clear"></div>\\n\\t    </div>\\n          </div>\\n\\n      \\t</div>\\n\\t<!-- end: Row -->\\n      \\t\\n\\t<hr>\\n\\t\\n\\t<!-- start Clients List -->\\t\\n\\t<div class="clients-carousel">\\n\\t  \\n\\t  <ul class="slides clients">\\n\\t    <li><img src="/distribuidora/static/custom/img/logos/1.png" alt=""/></li>\\n\\t    <li><img src="/distribuidora/static/custom/img/logos/2.png" alt=""/></li>\\t\\n\\t    <li><img src="/distribuidora/static/custom/img/logos/3.png" alt=""/></li>\\n\\t    <li><img src="/distribuidora/static/custom/img/logos/4.png" alt=""/></li>\\n\\t    <li><img src="/distribuidora/static/custom/img/logos/5.png" alt=""/></li>\\n\\t    <li><img src="/distribuidora/static/custom/img/logos/6.png" alt=""/></li>\\n\\t    <li><img src="/distribuidora/static/custom/img/logos/7.png" alt=""/></li>\\n\\t    <li><img src="/distribuidora/static/custom/img/logos/8.png" alt=""/></li>\\n\\t    <li><img src="/distribuidora/static/custom/img/logos/9.png" alt=""/></li>\\n\\t    <li><img src="/distribuidora/static/custom/img/logos/10.png" alt=""/></li>\\t\\t\\n\\t  </ul>\\n\\t  \\n\\t</div>\\n\\t<!-- end Clients List -->\\n\\t\\n\\t<hr>\\n\\t\\n\\t<!-- start: Row -->\\n\\t<div class="row">\\n\\t  \\n\\t  <!-- start: Icon Boxes -->\\n\\t  <div class="icons-box-vert-container">\\n\\n\\t    <!-- start: Icon Box Start -->\\n\\t    <div class="span6">\\n\\t      <div class="icons-box-vert">\\n\\t\\t<i class="ico-ok ico-color circle-color big"></i>\\n\\t\\t<div class="icons-box-vert-info">\\n\\t\\t  <h3>Easy to use</h3>\\n\\t\\t  <p>Lorem ipsum dolor sit amet, consectetuer adipiscing elit, sed diam nonummy nibh euismod tincidunt ut laoreet dolore magna aliquam erat volutpat.</p>\\n\\t\\t</div>\\n\\t\\t<div class="clear"></div>\\n\\t      </div>\\n\\t    </div>\\n\\t    <!-- end: Icon Box-->\\n\\n\\t    <!-- start: Icon Box Start -->\\n\\t    <div class="span6">\\n\\t      <div class="icons-box-vert">\\n\\t\\t<i class="ico-cup  ico-white circle-color-full big-color"></i>\\n\\t\\t<div class="icons-box-vert-info">\\n\\t\\t  <h3>Best choice</h3>\\n\\t\\t  <p>Lorem ipsum dolor sit amet, consectetuer adipiscing elit, sed diam nonummy nibh euismod tincidunt ut laoreet dolore magna aliquam erat volutpat.</p>\\n\\t\\t</div>\\n\\t\\t<div class="clear"></div>\\n\\t      </div>\\n\\t    </div>\\n\\t    <!-- end: Icon Box -->\\n\\n\\t    <!-- start: Icon Box Start -->\\n\\t    <div class="span6">\\n\\t      <div class="icons-box-vert">\\n\\t\\t<i class="ico-ipad ico-color circle-color big"></i>\\n\\t\\t<div class="icons-box-vert-info">\\n\\t\\t  <h3>Fully Responsive</h3>\\n\\t\\t  <p>Lorem ipsum dolor sit amet, consectetuer adipiscing elit, sed diam nonummy nibh euismod tincidunt ut laoreet dolore magna aliquam erat volutpat.</p>\\n\\t\\t</div>\\n\\t\\t<div class="clear"></div>\\n\\t      </div>\\n\\t    </div>\\n\\t    <!-- end: Icon Box -->\\n\\n\\t    <!-- start: Icon Box Start -->\\n\\t    <div class="span6">\\n\\t      <div class="icons-box-vert">\\n\\t\\t<i class="ico-thumbs-up  ico-white circle-color-full big-color"></i>\\n\\t\\t<div class="icons-box-vert-info">\\n\\t\\t  <h3>Social Network</h3>\\n\\t\\t  <p>Lorem ipsum dolor sit amet, consectetuer adipiscing elit, sed diam nonummy nibh euismod tincidunt ut laoreet dolore magna aliquam erat volutpat.</p>\\n\\t\\t</div>\\n\\t\\t<div class="clear"></div>\\n\\t      </div>\\n\\t    </div>\\n\\t    <!-- end: Icon Box -->\\n\\n\\t  </div>\\n\\t  <!-- end: Icon Boxes -->\\n\\t  <div class="clear"></div>\\n\\t</div>\\n\\t<!-- end: Row -->\\n\\t\\n\\t<hr>\\n\\t\\n      </div>\\n      <!--end: Container-->\\n      \\n      <!--start: Container -->\\n      <div class="container">\\t\\t\\n\\n      \\t<!-- start: Footer Menu -->\\n\\t<div id="footer-menu" class="hidden-tablet hidden-phone">\\n\\n\\t  <!-- start: Container -->\\n\\t  <div class="container">\\n\\t    \\n\\t    <!-- start: Row -->\\n\\t    <div class="row">\\n\\n\\t      <!-- start: Footer Menu Logo -->\\n\\t      <div class="span1">\\n\\t\\t<div id="footer-menu-logo">\\n\\t\\t  <a href="#"><img src="/distribuidora/static/custom/img/logo-footer-menu.png" alt="logo" /></a>\\n\\t\\t</div>\\n\\t      </div>\\n\\t      <!-- end: Footer Menu Logo -->\\n\\n\\t      <!-- start: Footer Menu Links-->\\n\\t      <div class="span10">\\n\\t\\t\\n\\t\\t<div id="footer-menu-links">\\n\\n\\t\\t  <ul id="footer-nav">\\n\\n\\t\\t    <li><a href="index.html">Start</a></li>\\n\\n\\t\\t    <li><a href="about.html">About</a></li>\\n\\n\\t\\t    <li><a href="services.html">Services</a></li>\\n\\n\\t\\t    <li><a href="pricing.html">Pricing</a></li>\\n\\t\\t    \\n\\t\\t    <li><a href="contact.html">Contact</a></li>\\n\\n\\t\\t  </ul>\\n\\n\\t\\t</div>\\n\\t\\t\\n\\t      </div>\\n\\t      <!-- end: Footer Menu Links-->\\n\\n\\t      <!-- start: Footer Menu Back To Top -->\\n\\t      <div class="span1">\\n\\t\\t\\n\\t\\t<div id="footer-menu-back-to-top">\\n\\t\\t  <a href="#"></a>\\n\\t\\t</div>\\n\\t\\t\\n\\t      </div>\\n\\t      <!-- end: Footer Menu Back To Top -->\\n\\t      \\n\\t    </div>\\n\\t    <!-- end: Row -->\\n\\t    \\n\\t  </div>\\n\\t  <!-- end: Container  -->\\t\\n\\n\\t</div>\\t\\n\\t<!-- end: Footer Menu -->\\n\\n\\t<!-- start: Footer -->\\n\\t<div id="footer">\\n\\t  \\n\\t  <!-- start: Container -->\\n\\t  <div class="container">\\n\\t    \\n\\t    <!-- start: Row -->\\n\\t    <div class="row">\\n\\n\\t      <!-- start: About -->\\n\\t      <div class="span3">\\n\\t\\t\\n\\t\\t<h3>About Us</h3>\\n\\t\\t<p>\\n\\t\\t  Lorem ipsum dolor sit amet, consectetuer adipiscing elit, sed diam nonummy nibh euismod tincidunt ut laoreet dolore magna aliquam erat volutpat. Ut wisi enim ad minim veniam, quis nostrud exerci tation ullamcorper suscipit lobortis nisl ut aliquip ex ea commodo consequat.\\n\\t\\t</p>\\n\\t\\t\\n\\t      </div>\\n\\t      <!-- end: About -->\\n\\n\\t      <!-- start: Photo Stream -->\\n\\t      <div class="span3">\\n\\t\\t\\n\\t\\t<h3>Photo Stream</h3>\\n\\t\\t<div class="flickr-widget">\\n\\t\\t  <script type="text/javascript" src="http://www.flickr.com/badge_code_v2.gne?count=9&display=latest&size=s&layout=x&source=user&user=29609591@N08"></script>\\n\\t\\t  <div class="clear"></div>\\n\\t\\t</div>\\n\\t\\t\\n\\t      </div>\\n\\t      <!-- end: Photo Stream -->\\n\\n\\t      \\n\\t      <div class="span6">\\n\\t\\t\\n\\t\\t<!-- start: Follow Us -->\\n\\t\\t<h3>Follow Us!</h3>\\n\\t\\t<ul class="social-grid">\\n\\t\\t  <li>\\n\\t\\t    <div class="social-item">\\t\\t\\t\\t\\n\\t\\t      <div class="social-info-wrap">\\n\\t\\t\\t<div class="social-info">\\n\\t\\t\\t  <div class="social-info-front social-twitter">\\n\\t\\t\\t    <a href="http://twitter.com"></a>\\n\\t\\t\\t  </div>\\n\\t\\t\\t  <div class="social-info-back social-twitter-hover">\\n\\t\\t\\t    <a href="http://twitter.com"></a>\\n\\t\\t\\t  </div>\\t\\n\\t\\t\\t</div>\\n\\t\\t      </div>\\n\\t\\t    </div>\\n\\t\\t  </li>\\n\\t\\t  <li>\\n\\t\\t    <div class="social-item">\\t\\t\\t\\t\\n\\t\\t      <div class="social-info-wrap">\\n\\t\\t\\t<div class="social-info">\\n\\t\\t\\t  <div class="social-info-front social-facebook">\\n\\t\\t\\t    <a href="http://facebook.com"></a>\\n\\t\\t\\t  </div>\\n\\t\\t\\t  <div class="social-info-back social-facebook-hover">\\n\\t\\t\\t    <a href="http://facebook.com"></a>\\n\\t\\t\\t  </div>\\n\\t\\t\\t</div>\\n\\t\\t      </div>\\n\\t\\t    </div>\\n\\t\\t  </li>\\n\\t\\t  <li>\\n\\t\\t    <div class="social-item">\\t\\t\\t\\t\\n\\t\\t      <div class="social-info-wrap">\\n\\t\\t\\t<div class="social-info">\\n\\t\\t\\t  <div class="social-info-front social-dribbble">\\n\\t\\t\\t    <a href="http://dribbble.com"></a>\\n\\t\\t\\t  </div>\\n\\t\\t\\t  <div class="social-info-back social-dribbble-hover">\\n\\t\\t\\t    <a href="http://dribbble.com"></a>\\n\\t\\t\\t  </div>\\t\\n\\t\\t\\t</div>\\n\\t\\t      </div>\\n\\t\\t    </div>\\n\\t\\t  </li>\\n\\t\\t  <li>\\n\\t\\t    <div class="social-item">\\t\\t\\t\\t\\n\\t\\t      <div class="social-info-wrap">\\n\\t\\t\\t<div class="social-info">\\n\\t\\t\\t  <div class="social-info-front social-flickr">\\n\\t\\t\\t    <a href="http://flickr.com"></a>\\n\\t\\t\\t  </div>\\n\\t\\t\\t  <div class="social-info-back social-flickr-hover">\\n\\t\\t\\t    <a href="http://flickr.com"></a>\\n\\t\\t\\t  </div>\\t\\n\\t\\t\\t</div>\\n\\t\\t      </div>\\n\\t\\t    </div>\\n\\t\\t  </li>\\n\\t\\t</ul>\\n\\t\\t<!-- end: Follow Us -->\\n\\t\\t\\n\\t\\t<!-- start: Newsletter -->\\n\\t\\t<form id="newsletter">\\n\\t\\t  <h3>Newsletter</h3>\\n\\t\\t  <p>Please leave us your email</p>\\n\\t\\t  <label for="newsletter_input">@:</label>\\n\\t\\t  <input type="text" id="newsletter_input"/>\\n\\t\\t  <input type="submit" id="newsletter_submit" value="submit">\\n\\t\\t</form>\\n\\t\\t<!-- end: Newsletter -->\\n\\t\\t\\n\\t      </div>\\n\\t      \\n\\t    </div>\\n\\t    <!-- end: Row -->\\t\\n\\t    \\n\\t  </div>\\n\\t  <!-- end: Container  -->\\n\\n\\t</div>\\n\\t<!-- end: Footer -->\\n\\t\\n      </div>\\n      <!-- end: Container  -->\\n\\n    </div>\\n    <!-- end: Wrapper  -->\\n\\n\\n    <!-- start: Copyright -->\\n    <div id="copyright">\\n      \\n      <!-- start: Container -->\\n      <div class="container">\\n\\t\\n\\t<p>\\n\\t  &copy; 2013, creativeLabs. <a href="http://bootstrapmaster.com" alt="Bootstrap Themes">Bootstrap Themes</a> Designed by BootstrapMaster in Poland <img src="/distribuidora/static/custom/img/poland.png" alt="Poland" style="margin-top:-4px">\\n\\t</p>\\n\\t\\n      </div>\\n      <!-- end: Container  -->\\n      \\n    </div>\\t\\n    <!-- end: Copyright -->\\n\\n    <!-- start: Java Script -->\\n    <!-- Placed at the end of the document so the pages load faster -->\\n    <script src="\', escape=False)\nresponse.write(URL(\'static\',\'custom/js/jquery-1.8.2.js\'))\nresponse.write(\'"></script>\\n    <script src="\', escape=False)\nresponse.write(URL(\'static\',\'custom/js/bootstrap.js\'))\nresponse.write(\'"></script>\\n    <script src="\', escape=False)\nresponse.write(URL(\'static\',\'custom/js/flexslider.js\'))\nresponse.write(\'"></script>\\n    <script src="\', escape=False)\nresponse.write(URL(\'static\',\'custom/js/carousel.js\'))\nresponse.write(\'"></script>\\n    <script def src="\', escape=False)\nresponse.write(URL(\'static\',\'custom/js/custom.js\'))\nresponse.write(\'"></script>\\n    <!-- end: Java Script -->\\n\\n  </body>\\n</html>\\n\', escape=False)'
p7
sS'snapshot'
p8
(dp9
S'exception'
p10
(dp11
S'__hash__'
p12
S"<method-wrapper '__hash__' of exceptions.NameError object>"
p13
sS'__setattr__'
p14
S"<method-wrapper '__setattr__' of exceptions.NameError object>"
p15
sS'__reduce_ex__'
p16
S'<built-in method __reduce_ex__ of exceptions.NameError object>'
p17
sS'__getslice__'
p18
S"<method-wrapper '__getslice__' of exceptions.NameError object>"
p19
sS'__getitem__'
p20
S"<method-wrapper '__getitem__' of exceptions.NameError object>"
p21
sS'__setstate__'
p22
S'<built-in method __setstate__ of exceptions.NameError object>'
p23
sS'args'
p24
S'("name \'is_mobile\' is not defined",)'
p25
sS'__reduce__'
p26
S'<built-in method __reduce__ of exceptions.NameError object>'
p27
sS'__str__'
p28
S"<method-wrapper '__str__' of exceptions.NameError object>"
p29
sS'__format__'
p30
S'<built-in method __format__ of exceptions.NameError object>'
p31
sS'__getattribute__'
p32
S"<method-wrapper '__getattribute__' of exceptions.NameError object>"
p33
sS'__class__'
p34
S"<type 'exceptions.NameError'>"
p35
sS'__unicode__'
p36
S'<built-in method __unicode__ of exceptions.NameError object>'
p37
sS'__delattr__'
p38
S"<method-wrapper '__delattr__' of exceptions.NameError object>"
p39
sS'__subclasshook__'
p40
S'<built-in method __subclasshook__ of type object>'
p41
sS'__repr__'
p42
S"<method-wrapper '__repr__' of exceptions.NameError object>"
p43
sS'__dict__'
p44
S'{}'
p45
sS'__sizeof__'
p46
S'<built-in method __sizeof__ of exceptions.NameError object>'
p47
sS'__doc__'
p48
S"'Name not found globally.'"
p49
sS'__init__'
p50
S"<method-wrapper '__init__' of exceptions.NameError object>"
p51
sS'__new__'
p52
S'<built-in method __new__ of type object>'
p53
ssS'evalue'
p54
S"name 'is_mobile' is not defined"
p55
sS'request'
p56
cgluon.html
XML_unpickle
p57
(S's\xf6U\x00\x00<div><table><tr><td style="font-weight:bold;vertical-align:top;">ajax</td><td style="vertical-align:top;">:</td><td><div>False</div></td></tr><tr><td style="font-weight:bold;vertical-align:top;">application</td><td style="vertical-align:top;">:</td><td><div>distribuidora</div></td></tr><tr><td style="font-weight:bold;vertical-align:top;">args</td><td style="vertical-align:top;">:</td><td><div><table></table></div></td></tr><tr><td style="font-weight:bold;vertical-align:top;">cid</td><td style="vertical-align:top;">:</td><td><div>None</div></td></tr><tr><td style="font-weight:bold;vertical-align:top;">client</td><td style="vertical-align:top;">:</td><td><div>127.0.0.1</div></td></tr><tr><td style="font-weight:bold;vertical-align:top;">controller</td><td style="vertical-align:top;">:</td><td><div>default</div></td></tr><tr><td style="font-weight:bold;vertical-align:top;">cookies</td><td style="vertical-align:top;">:</td><td><div><table><tr><td style="font-weight:bold;vertical-align:top;">session_id_admin</td><td style="vertical-align:top;">:</td><td><div>127.0.0.1-df3c2296-8afb-40ab-b765-70ea5ed6d0da<table><tr><td style="font-weight:bold;vertical-align:top;">comment</td><td style="vertical-align:top;">:</td><td><div></div></td></tr><tr><td style="font-weight:bold;vertical-align:top;">domain</td><td style="vertical-align:top;">:</td><td><div></div></td></tr><tr><td style="font-weight:bold;vertical-align:top;">expires</td><td style="vertical-align:top;">:</td><td><div></div></td></tr><tr><td style="font-weight:bold;vertical-align:top;">httponly</td><td style="vertical-align:top;">:</td><td><div></div></td></tr><tr><td style="font-weight:bold;vertical-align:top;">max-age</td><td style="vertical-align:top;">:</td><td><div></div></td></tr><tr><td style="font-weight:bold;vertical-align:top;">path</td><td style="vertical-align:top;">:</td><td><div></div></td></tr><tr><td style="font-weight:bold;vertical-align:top;">secure</td><td style="vertical-align:top;">:</td><td><div></div></td></tr><tr><td style="font-weight:bold;vertical-align:top;">version</td><td style="vertical-align:top;">:</td><td><div></div></td></tr></table></div></td></tr><tr><td style="font-weight:bold;vertical-align:top;">session_id_distribuidora</td><td style="vertical-align:top;">:</td><td><div>127.0.0.1-88a7529d-b489-4097-a3c4-a2bca9bb36e2<table><tr><td style="font-weight:bold;vertical-align:top;">comment</td><td style="vertical-align:top;">:</td><td><div></div></td></tr><tr><td style="font-weight:bold;vertical-align:top;">domain</td><td style="vertical-align:top;">:</td><td><div></div></td></tr><tr><td style="font-weight:bold;vertical-align:top;">expires</td><td style="vertical-align:top;">:</td><td><div></div></td></tr><tr><td style="font-weight:bold;vertical-align:top;">httponly</td><td style="vertical-align:top;">:</td><td><div></div></td></tr><tr><td style="font-weight:bold;vertical-align:top;">max-age</td><td style="vertical-align:top;">:</td><td><div></div></td></tr><tr><td style="font-weight:bold;vertical-align:top;">path</td><td style="vertical-align:top;">:</td><td><div></div></td></tr><tr><td style="font-weight:bold;vertical-align:top;">secure</td><td style="vertical-align:top;">:</td><td><div></div></td></tr><tr><td style="font-weight:bold;vertical-align:top;">version</td><td style="vertical-align:top;">:</td><td><div></div></td></tr></table></div></td></tr></table></div></td></tr><tr><td style="font-weight:bold;vertical-align:top;">env</td><td style="vertical-align:top;">:</td><td><div><table><tr><td style="font-weight:bold;vertical-align:top;">HTTP_ACCEPT</td><td style="vertical-align:top;">:</td><td><div>text/html,application/xhtml+xml,application/xml;q=0.9,*/*;q=0.8</div></td></tr><tr><td style="font-weight:bold;vertical-align:top;">HTTP_ACCEPT_ENCODING</td><td style="vertical-align:top;">:</td><td><div>gzip, deflate</div></td></tr><tr><td style="font-weight:bold;vertical-align:top;">HTTP_ACCEPT_LANGUAGE</td><td style="vertical-align:top;">:</td><td><div>en-US,en;q=0.5</div></td></tr><tr><td style="font-weight:bold;vertical-align:top;">HTTP_CACHE_CONTROL</td><td style="vertical-align:top;">:</td><td><div>max-age=0</div></td></tr><tr><td style="font-weight:bold;vertical-align:top;">HTTP_CONNECTION</td><td style="vertical-align:top;">:</td><td><div>keep-alive</div></td></tr><tr><td style="font-weight:bold;vertical-align:top;">HTTP_COOKIE</td><td style="vertical-align:top;">:</td><td><div>session_id_distribuidora=127.0.0.1-88a7529d-b489-4097-a3c4-a2bca9bb36e2; session_id_admin=127.0.0.1-df3c2296-8afb-40ab-b765-70ea5ed6d0da</div></td></tr><tr><td style="font-weight:bold;vertical-align:top;">HTTP_HOST</td><td style="vertical-align:top;">:</td><td><div>127.0.0.1:8000</div></td></tr><tr><td style="font-weight:bold;vertical-align:top;">HTTP_USER_AGENT</td><td style="vertical-align:top;">:</td><td><div>Mozilla/5.0 (X11; Linux x86_64; rv:31.0) Gecko/20100101 Firefox/31.0 Iceweasel/31.0 FirePHP/0.7.4</div></td></tr><tr><td style="font-weight:bold;vertical-align:top;">HTTP_X_INSIGHT</td><td style="vertical-align:top;">:</td><td><div>activate</div></td></tr><tr><td style="font-weight:bold;vertical-align:top;">PATH_INFO</td><td style="vertical-align:top;">:</td><td><div>/distribuidora/default/index</div></td></tr><tr><td style="font-weight:bold;vertical-align:top;">QUERY_STRING</td><td style="vertical-align:top;">:</td><td><div></div></td></tr><tr><td style="font-weight:bold;vertical-align:top;">REMOTE_ADDR</td><td style="vertical-align:top;">:</td><td><div>127.0.0.1</div></td></tr><tr><td style="font-weight:bold;vertical-align:top;">REMOTE_PORT</td><td style="vertical-align:top;">:</td><td><div>38127</div></td></tr><tr><td style="font-weight:bold;vertical-align:top;">REQUEST_METHOD</td><td style="vertical-align:top;">:</td><td><div>GET</div></td></tr><tr><td style="font-weight:bold;vertical-align:top;">SCRIPT_NAME</td><td style="vertical-align:top;">:</td><td><div></div></td></tr><tr><td style="font-weight:bold;vertical-align:top;">SERVER_NAME</td><td style="vertical-align:top;">:</td><td><div>malena</div></td></tr><tr><td style="font-weight:bold;vertical-align:top;">SERVER_PORT</td><td style="vertical-align:top;">:</td><td><div>8000</div></td></tr><tr><td style="font-weight:bold;vertical-align:top;">SERVER_PROTOCOL</td><td style="vertical-align:top;">:</td><td><div>HTTP/1.1</div></td></tr><tr><td style="font-weight:bold;vertical-align:top;">SERVER_SOFTWARE</td><td style="vertical-align:top;">:</td><td><div>Rocket 1.2.6</div></td></tr><tr><td style="font-weight:bold;vertical-align:top;">app_folders</td><td style="vertical-align:top;">:</td><td><div>set([&#x27;/home/marco/trabajo/experimental/web2py/applications/admin/&#x27;, &#x27;/home/marco/trabajo/experimental/web2py/applications/distribuidora/&#x27;])</div></td></tr><tr><td style="font-weight:bold;vertical-align:top;">applications_parent</td><td style="vertical-align:top;">:</td><td><div>/home/marco/trabajo/experimental/web2py</div></td></tr><tr><td style="font-weight:bold;vertical-align:top;">cmd_args</td><td style="vertical-align:top;">:</td><td><div><table></table></div></td></tr><tr><td style="font-weight:bold;vertical-align:top;">cmd_options</td><td style="vertical-align:top;">:</td><td><div>&lt;Values at 0x7fb8056c1b48: {&#x27;verbose&#x27;: False, &#x27;ip&#x27;: &#x27;127.0.0.1&#x27;, &#x27;debuglevel&#x27;: 30, &#x27;with_scheduler&#x27;: False, &#x27;ips&#x27;: [&#x27;127.0.1.1&#x27;], &#x27;shutdown_timeout&#x27;: 5, &#x27;taskbar&#x27;: False, &#x27;with_coverage&#x27;: False, &#x27;scheduler_groups&#x27;: None, &#x27;port&#x27;: 8000, &#x27;maxthreads&#x27;: None, &#x27;softcron&#x27;: False, &#x27;server_name&#x27;: &#x27;malena&#x27;, &#x27;bpython&#x27;: False, &#x27;nogui&#x27;: False, &#x27;pid_filename&#x27;: &#x27;httpserver.pid&#x27;, &#x27;extcron&#x27;: False, &#x27;runcron&#x27;: False, &#x27;run_system_tests&#x27;: False, &#x27;test&#x27;: None, &#x27;folder&#x27;: &#x27;/home/marco/trabajo/experimental/web2py&#x27;, &#x27;config&#x27;: &#x27;&#x27;, &#x27;minthreads&#x27;: None, &#x27;shell&#x27;: None, &#x27;run&#x27;: &#x27;&#x27;, &#x27;log_filename&#x27;: &#x27;httpserver.log&#x27;, &#x27;profiler_dir&#x27;: None, &#x27;args&#x27;: [&#x27;&#x27;], &#x27;socket_timeout&#x27;: 5, &#x27;ssl_ca_certificate&#x27;: None, &#x27;scheduler&#x27;: None, &#x27;interfaces&#x27;: None, &#x27;ssl_private_key&#x27;: &#x27;&#x27;, &#x27;gae&#x27;: None, &#x27;password&#x27;: &#x27;asd&#x27;, &#x27;request_queue_size&#x27;: 5, &#x27;ssl_certificate&#x27;: &#x27;&#x27;, &#x27;cronjob&#x27;: False, &#x27;numthreads&#x27;: None, &#x27;quiet&#x27;: False, &#x27;import_models&#x27;: False, &#x27;timeout&#x27;: 10, &#x27;plain&#x27;: False, &#x27;nobanner&#x27;: False}&gt;</div></td></tr><tr><td style="font-weight:bold;vertical-align:top;">db_sessions</td><td style="vertical-align:top;">:</td><td><div>set([])</div></td></tr><tr><td style="font-weight:bold;vertical-align:top;">debugging</td><td style="vertical-align:top;">:</td><td><div>False</div></td></tr><tr><td style="font-weight:bold;vertical-align:top;">gluon_parent</td><td style="vertical-align:top;">:</td><td><div>/home/marco/trabajo/experimental/web2py</div></td></tr><tr><td style="font-weight:bold;vertical-align:top;">http_accept</td><td style="vertical-align:top;">:</td><td><div>text/html,application/xhtml+xml,application/xml;q=0.9,*/*;q=0.8</div></td></tr><tr><td style="font-weight:bold;vertical-align:top;">http_accept_encoding</td><td style="vertical-align:top;">:</td><td><div>gzip, deflate</div></td></tr><tr><td style="font-weight:bold;vertical-align:top;">http_accept_language</td><td style="vertical-align:top;">:</td><td><div>en-US,en;q=0.5</div></td></tr><tr><td style="font-weight:bold;vertical-align:top;">http_cache_control</td><td style="vertical-align:top;">:</td><td><div>max-age=0</div></td></tr><tr><td style="font-weight:bold;vertical-align:top;">http_connection</td><td style="vertical-align:top;">:</td><td><div>keep-alive</div></td></tr><tr><td style="font-weight:bold;vertical-align:top;">http_cookie</td><td style="vertical-align:top;">:</td><td><div>session_id_distribuidora=127.0.0.1-88a7529d-b489-4097-a3c4-a2bca9bb36e2; session_id_admin=127.0.0.1-df3c2296-8afb-40ab-b765-70ea5ed6d0da</div></td></tr><tr><td style="font-weight:bold;vertical-align:top;">http_host</td><td style="vertical-align:top;">:</td><td><div>127.0.0.1:8000</div></td></tr><tr><td style="font-weight:bold;vertical-align:top;">http_user_agent</td><td style="vertical-align:top;">:</td><td><div>Mozilla/5.0 (X11; Linux x86_64; rv:31.0) Gecko/20100101 Firefox/31.0 Iceweasel/31.0 FirePHP/0.7.4</div></td></tr><tr><td style="font-weight:bold;vertical-align:top;">http_x_insight</td><td style="vertical-align:top;">:</td><td><div>activate</div></td></tr><tr><td style="font-weight:bold;vertical-align:top;">is_jython</td><td style="vertical-align:top;">:</td><td><div>False</div></td></tr><tr><td style="font-weight:bold;vertical-align:top;">is_pypy</td><td style="vertical-align:top;">:</td><td><div>False</div></td></tr><tr><td style="font-weight:bold;vertical-align:top;">is_source</td><td style="vertical-align:top;">:</td><td><div>True</div></td></tr><tr><td style="font-weight:bold;vertical-align:top;">local_hosts</td><td style="vertical-align:top;">:</td><td><div><table><tr><td><div>malena</div></td></tr><tr><td><div>::1</div></td></tr><tr><td><div>127.0.1.1</div></td></tr><tr><td><div>::ffff:127.0.0.1</div></td></tr><tr><td><div>127.0.0.1</div></td></tr></table></div></td></tr><tr><td style="font-weight:bold;vertical-align:top;">path_info</td><td style="vertical-align:top;">:</td><td><div>/distribuidora/default/index</div></td></tr><tr><td style="font-weight:bold;vertical-align:top;">query_string</td><td style="vertical-align:top;">:</td><td><div></div></td></tr><tr><td style="font-weight:bold;vertical-align:top;">remote_addr</td><td style="vertical-align:top;">:</td><td><div>127.0.0.1</div></td></tr><tr><td style="font-weight:bold;vertical-align:top;">remote_port</td><td style="vertical-align:top;">:</td><td><div>38127</div></td></tr><tr><td style="font-weight:bold;vertical-align:top;">request_method</td><td style="vertical-align:top;">:</td><td><div>GET</div></td></tr><tr><td style="font-weight:bold;vertical-align:top;">request_uri</td><td style="vertical-align:top;">:</td><td><div>/distribuidora/default/index</div></td></tr><tr><td style="font-weight:bold;vertical-align:top;">script_name</td><td style="vertical-align:top;">:</td><td><div></div></td></tr><tr><td style="font-weight:bold;vertical-align:top;">server_name</td><td style="vertical-align:top;">:</td><td><div>malena</div></td></tr><tr><td style="font-weight:bold;vertical-align:top;">server_port</td><td style="vertical-align:top;">:</td><td><div>8000</div></td></tr><tr><td style="font-weight:bold;vertical-align:top;">server_protocol</td><td style="vertical-align:top;">:</td><td><div>HTTP/1.1</div></td></tr><tr><td style="font-weight:bold;vertical-align:top;">server_software</td><td style="vertical-align:top;">:</td><td><div>Rocket 1.2.6</div></td></tr><tr><td style="font-weight:bold;vertical-align:top;">web2py_path</td><td style="vertical-align:top;">:</td><td><div>/home/marco/trabajo/experimental/web2py</div></td></tr><tr><td style="font-weight:bold;vertical-align:top;">web2py_version</td><td style="vertical-align:top;">:</td><td><div>2.9.5-trunk+timestamp.2014.06.14.10.06.38</div></td></tr><tr><td style="font-weight:bold;vertical-align:top;">wsgi.errors</td><td style="vertical-align:top;">:</td><td><div>&lt;open file &#x27;&lt;stderr&gt;&#x27;, mode &#x27;w&#x27; at 0x7fb80fd701e0&gt;</div></td></tr><tr><td style="font-weight:bold;vertical-align:top;">wsgi.file_wrapper</td><td style="vertical-align:top;">:</td><td><div>&lt;class wsgiref.util.FileWrapper at 0x7fb805740530&gt;</div></td></tr><tr><td style="font-weight:bold;vertical-align:top;">wsgi.input</td><td style="vertical-align:top;">:</td><td><div>&lt;socket._fileobject object at 0x7fb7d923e150&gt;</div></td></tr><tr><td style="font-weight:bold;vertical-align:top;">wsgi.multiprocess</td><td style="vertical-align:top;">:</td><td><div>False</div></td></tr><tr><td style="font-weight:bold;vertical-align:top;">wsgi.multithread</td><td style="vertical-align:top;">:</td><td><div>True</div></td></tr><tr><td style="font-weight:bold;vertical-align:top;">wsgi.run_once</td><td style="vertical-align:top;">:</td><td><div>False</div></td></tr><tr><td style="font-weight:bold;vertical-align:top;">wsgi.url_scheme</td><td style="vertical-align:top;">:</td><td><div>http</div></td></tr><tr><td style="font-weight:bold;vertical-align:top;">wsgi.version</td><td style="vertical-align:top;">:</td><td><div><table><tr><td><div>1</div></td></tr><tr><td><div>0</div></td></tr></table></div></td></tr><tr><td style="font-weight:bold;vertical-align:top;">wsgi_errors</td><td style="vertical-align:top;">:</td><td><div>&lt;open file &#x27;&lt;stderr&gt;&#x27;, mode &#x27;w&#x27; at 0x7fb80fd701e0&gt;</div></td></tr><tr><td style="font-weight:bold;vertical-align:top;">wsgi_file_wrapper</td><td style="vertical-align:top;">:</td><td><div>&lt;class wsgiref.util.FileWrapper at 0x7fb805740530&gt;</div></td></tr><tr><td style="font-weight:bold;vertical-align:top;">wsgi_input</td><td style="vertical-align:top;">:</td><td><div>&lt;socket._fileobject object at 0x7fb7d923e150&gt;</div></td></tr><tr><td style="font-weight:bold;vertical-align:top;">wsgi_multiprocess</td><td style="vertical-align:top;">:</td><td><div>False</div></td></tr><tr><td style="font-weight:bold;vertical-align:top;">wsgi_multithread</td><td style="vertical-align:top;">:</td><td><div>True</div></td></tr><tr><td style="font-weight:bold;vertical-align:top;">wsgi_run_once</td><td style="vertical-align:top;">:</td><td><div>False</div></td></tr><tr><td style="font-weight:bold;vertical-align:top;">wsgi_url_scheme</td><td style="vertical-align:top;">:</td><td><div>http</div></td></tr><tr><td style="font-weight:bold;vertical-align:top;">wsgi_version</td><td style="vertical-align:top;">:</td><td><div><table><tr><td><div>1</div></td></tr><tr><td><div>0</div></td></tr></table></div></td></tr></table></div></td></tr><tr><td style="font-weight:bold;vertical-align:top;">extension</td><td style="vertical-align:top;">:</td><td><div>html</div></td></tr><tr><td style="font-weight:bold;vertical-align:top;">folder</td><td style="vertical-align:top;">:</td><td><div>/home/marco/trabajo/experimental/web2py/applications/distribuidora/</div></td></tr><tr><td style="font-weight:bold;vertical-align:top;">function</td><td style="vertical-align:top;">:</td><td><div>index</div></td></tr><tr><td style="font-weight:bold;vertical-align:top;">global_settings</td><td style="vertical-align:top;">:</td><td><div><table><tr><td style="font-weight:bold;vertical-align:top;">app_folders</td><td style="vertical-align:top;">:</td><td><div>set([&#x27;/home/marco/trabajo/experimental/web2py/applications/admin/&#x27;, &#x27;/home/marco/trabajo/experimental/web2py/applications/distribuidora/&#x27;])</div></td></tr><tr><td style="font-weight:bold;vertical-align:top;">applications_parent</td><td style="vertical-align:top;">:</td><td><div>/home/marco/trabajo/experimental/web2py</div></td></tr><tr><td style="font-weight:bold;vertical-align:top;">cmd_args</td><td style="vertical-align:top;">:</td><td><div><table></table></div></td></tr><tr><td style="font-weight:bold;vertical-align:top;">cmd_options</td><td style="vertical-align:top;">:</td><td><div>&lt;Values at 0x7fb8056c1b48: {&#x27;verbose&#x27;: False, &#x27;ip&#x27;: &#x27;127.0.0.1&#x27;, &#x27;debuglevel&#x27;: 30, &#x27;with_scheduler&#x27;: False, &#x27;ips&#x27;: [&#x27;127.0.1.1&#x27;], &#x27;shutdown_timeout&#x27;: 5, &#x27;taskbar&#x27;: False, &#x27;with_coverage&#x27;: False, &#x27;scheduler_groups&#x27;: None, &#x27;port&#x27;: 8000, &#x27;maxthreads&#x27;: None, &#x27;softcron&#x27;: False, &#x27;server_name&#x27;: &#x27;malena&#x27;, &#x27;bpython&#x27;: False, &#x27;nogui&#x27;: False, &#x27;pid_filename&#x27;: &#x27;httpserver.pid&#x27;, &#x27;extcron&#x27;: False, &#x27;runcron&#x27;: False, &#x27;run_system_tests&#x27;: False, &#x27;test&#x27;: None, &#x27;folder&#x27;: &#x27;/home/marco/trabajo/experimental/web2py&#x27;, &#x27;config&#x27;: &#x27;&#x27;, &#x27;minthreads&#x27;: None, &#x27;shell&#x27;: None, &#x27;run&#x27;: &#x27;&#x27;, &#x27;log_filename&#x27;: &#x27;httpserver.log&#x27;, &#x27;profiler_dir&#x27;: None, &#x27;args&#x27;: [&#x27;&#x27;], &#x27;socket_timeout&#x27;: 5, &#x27;ssl_ca_certificate&#x27;: None, &#x27;scheduler&#x27;: None, &#x27;interfaces&#x27;: None, &#x27;ssl_private_key&#x27;: &#x27;&#x27;, &#x27;gae&#x27;: None, &#x27;password&#x27;: &#x27;asd&#x27;, &#x27;request_queue_size&#x27;: 5, &#x27;ssl_certificate&#x27;: &#x27;&#x27;, &#x27;cronjob&#x27;: False, &#x27;numthreads&#x27;: None, &#x27;quiet&#x27;: False, &#x27;import_models&#x27;: False, &#x27;timeout&#x27;: 10, &#x27;plain&#x27;: False, &#x27;nobanner&#x27;: False}&gt;</div></td></tr><tr><td style="font-weight:bold;vertical-align:top;">db_sessions</td><td style="vertical-align:top;">:</td><td><div>set([])</div></td></tr><tr><td style="font-weight:bold;vertical-align:top;">debugging</td><td style="vertical-align:top;">:</td><td><div>False</div></td></tr><tr><td style="font-weight:bold;vertical-align:top;">gluon_parent</td><td style="vertical-align:top;">:</td><td><div>/home/marco/trabajo/experimental/web2py</div></td></tr><tr><td style="font-weight:bold;vertical-align:top;">is_jython</td><td style="vertical-align:top;">:</td><td><div>False</div></td></tr><tr><td style="font-weight:bold;vertical-align:top;">is_pypy</td><td style="vertical-align:top;">:</td><td><div>False</div></td></tr><tr><td style="font-weight:bold;vertical-align:top;">is_source</td><td style="vertical-align:top;">:</td><td><div>True</div></td></tr><tr><td style="font-weight:bold;vertical-align:top;">local_hosts</td><td style="vertical-align:top;">:</td><td><div><table><tr><td><div>malena</div></td></tr><tr><td><div>::1</div></td></tr><tr><td><div>127.0.1.1</div></td></tr><tr><td><div>::ffff:127.0.0.1</div></td></tr><tr><td><div>127.0.0.1</div></td></tr></table></div></td></tr><tr><td style="font-weight:bold;vertical-align:top;">web2py_version</td><td style="vertical-align:top;">:</td><td><div>2.9.5-trunk+timestamp.2014.06.14.10.06.38</div></td></tr></table></div></td></tr><tr><td style="font-weight:bold;vertical-align:top;">is_https</td><td style="vertical-align:top;">:</td><td><div>False</div></td></tr><tr><td style="font-weight:bold;vertical-align:top;">is_local</td><td style="vertical-align:top;">:</td><td><div>True</div></td></tr><tr><td style="font-weight:bold;vertical-align:top;">is_restful</td><td style="vertical-align:top;">:</td><td><div>False</div></td></tr><tr><td style="font-weight:bold;vertical-align:top;">now</td><td style="vertical-align:top;">:</td><td><div>datetime.datetime(2014, 7, 21, 20, 52, 41, 890918)</div></td></tr><tr><td style="font-weight:bold;vertical-align:top;">raw_args</td><td style="vertical-align:top;">:</td><td><div></div></td></tr><tr><td style="font-weight:bold;vertical-align:top;">raw_extension</td><td style="vertical-align:top;">:</td><td><div>None</div></td></tr><tr><td style="font-weight:bold;vertical-align:top;">url</td><td style="vertical-align:top;">:</td><td><div>/distribuidora/default/index</div></td></tr><tr><td style="font-weight:bold;vertical-align:top;">utcnow</td><td style="vertical-align:top;">:</td><td><div>datetime.datetime(2014, 7, 21, 23, 52, 41, 890957)</div></td></tr><tr><td style="font-weight:bold;vertical-align:top;">uuid</td><td style="vertical-align:top;">:</td><td><div>distribuidora/127.0.0.1.2014-07-21.20-52-41.51d1e521-9d90-412f-9082-dfafb60e1b6b</div></td></tr><tr><td style="font-weight:bold;vertical-align:top;">wsgi</td><td style="vertical-align:top;">:</td><td><div>&lt;gluon.main.LazyWSGI object at 0x7fb7d95d6dd0&gt;</div></td></tr></table></div>'
tRp58
sS'frames'
p59
(lp60
(dp61
S'file'
p62
S'/home/marco/trabajo/experimental/web2py/gluon/restricted.py'
p63
sS'dump'
p64
(dp65
S'environment'
p66
S"{'A': <class 'gluon.html.A'>, 'ANY_OF': <class 'gluon.validators.ANY_OF'>, 'Auth': <class 'gluon.tools.Auth'>, 'B': <class 'gluon.html.B'>, 'BEAUTIFY': <class 'gluon.html.BEAUTIFY'>, 'BODY': <class 'gluon.html.BODY'>, 'BR': <class 'gluon.html.BR'>, 'BUTTON': <class 'gluon.html.BUTTON'>, 'CAT': <class 'gluon.html.CAT'>, 'CENTER': <class 'gluon.html.CENTER'>, ...}"
p67
sS'ccode'
p68
S'<code object <module> at 0x7fb7d9338730, file "/.../distribuidora/views/default/index.html", line 1>'
p69
ssS'lnum'
p70
I221
sS'lines'
p71
(dp72
I224
S'    except RestrictedError:'
p73
sI225
S'        # do not encapsulate (obfuscate) the original RestrictedError'
p74
sI216
S'    try:'
p75
sI217
S'        if isinstance(code, types.CodeType):'
p76
sI218
S'            ccode = code'
p77
sI219
S'        else:'
p78
sI220
S'            ccode = compile2(code, layer)'
p79
sI221
S'        exec ccode in environment'
p80
sI222
S'    except HTTP:'
p81
sI223
S'        raise'
p82
ssS'call'
p83
S'(code=\'response.write(\\\'<!DOCTYPE html>\\\\n<html lang="en"...cript -->\\\\n\\\\n  </body>\\\\n</html>\\\\n\\\', escape=False)\', environment={\'A\': <class \'gluon.html.A\'>, \'ANY_OF\': <class \'gluon.validators.ANY_OF\'>, \'Auth\': <class \'gluon.tools.Auth\'>, \'B\': <class \'gluon.html.B\'>, \'BEAUTIFY\': <class \'gluon.html.BEAUTIFY\'>, \'BODY\': <class \'gluon.html.BODY\'>, \'BR\': <class \'gluon.html.BR\'>, \'BUTTON\': <class \'gluon.html.BUTTON\'>, \'CAT\': <class \'gluon.html.CAT\'>, \'CENTER\': <class \'gluon.html.CENTER\'>, ...}, layer=\'/home/marco/trabajo/experimental/web2py/applications/distribuidora/views/default/index.html\')'
p84
sS'func'
p85
S'restricted'
p86
sa(dp87
g62
S'/home/marco/trabajo/experimental/web2py/applications/distribuidora/views/default/index.html'
p88
sg64
(dp89
S'credit'
p90
S'undefined'
p91
sS'give'
p92
g91
sS'it'
p93
g91
sS'whatever'
p94
g91
sS'Creative'
p95
g91
sS'href'
p96
g91
sS'are'
p97
g91
sS'want'
p98
g91
sS'builtinlicense'
p99
S'Type license() to see the full license text'
p100
sS'even'
p101
g91
sS'provided'
p102
g91
sS'use'
p103
g91
sS'Attribution'
p104
g91
sS'to'
p105
g91
sS're'
p106
g91
sS'compliant'
p107
g91
sS'much'
p108
g91
sS'rel'
p109
g91
sS'TEMPLATED'
p110
g91
sS'you'
p111
g91
sS'do'
p112
g91
sS'template'
p113
g91
sS'This'
p114
g91
sS'Fetchingly'
p115
g91
sS'Commons'
p116
g91
sS'free'
p117
g91
sS'commercially'
p118
g91
sS'released'
p119
g91
sS'designed'
p120
g91
sS'strong'
p121
g91
sS'by'
p122
g91
sS'CSS'
p123
g91
sS'a'
g91
sS'Fotogrph'
p124
g91
sS'photos'
p125
g91
sS'this'
p126
g91
sS'fully'
p127
g91
sS'us'
p128
g91
sS'standards'
p129
g91
sS'p'
g91
sS'so'
p130
g91
sS'fun'
p131
g91
sS'under'
p132
g91
sS'the'
p133
g91
sS'pretty'
p134
g91
ssg70
I8
sg71
(dp135
I1
S'response.write(\'<!DOCTYPE html>\\n<html lang="en">\\n  <head>\\n\\n    <!-- start: Meta -->\\n    <meta charset="utf-8">\\n    <title>FreeME:BOOTSTRAP THEME by BootstrapMaster</title> \\n    <meta name="description" content="FreeME:Bootstrap Theme"/>\\n    <meta name="keywords" content="Template, Theme, web, html5, css3" />\\n    <meta name="author" content="\\xc5\\x81ukasz Holeczek from creativeLabs"/>\\n    <!-- end: Meta -->\\n    \\n    <!-- start: Mobile Specific -->\\n    <meta name="viewport" content="width=device-width, initial-scale=1, maximum-scale=1">\\n    <!-- end: Mobile Specific -->\\n    \\n    <!-- start: Facebook Open Graph -->\\n    <meta property="og:title" content=""/>\\n    <meta property="og:description" content=""/>\\n    <meta property="og:type" content=""/>\\n    <meta property="og:url" content=""/>\\n    <meta property="og:image" content=""/>\\n    <!-- end: Facebook Open Graph -->\\n\\n    <!-- start: CSS -->\\n    <link href="\', escape=False)'
p136
sI2
S"response.write(URL('static','custom/css/bootstrap.css'))"
p137
sI3
S'response.write(\'" rel="stylesheet">\\n    <link href="\', escape=False)'
p138
sI4
S"response.write(URL('static','custom/css/bootstrap-responsive.css'))"
p139
sI5
S'response.write(\'" rel="stylesheet">\\n    <link href="\', escape=False)'
p140
sI6
S"response.write(URL('static','custom/css/style.css'))"
p141
sI7
S'response.write(\'" rel="stylesheet">\\n    <link rel="stylesheet" type="text/css" href="http://fonts.googleapis.com/css?family=Droid+Sans:400,700">\\n    <link rel="stylesheet" type="text/css" href="http://fonts.googleapis.com/css?family=Droid+Serif">\\n    <link rel="stylesheet" type="text/css" href="http://fonts.googleapis.com/css?family=Boogaloo">\\n    <link rel="stylesheet" type="text/css" href="http://fonts.googleapis.com/css?family=Economica:700,400italic">\\n    <!-- end: CSS -->\\n\\n    <!-- Le HTML5 shim, for IE6-8 support of HTML5 elements -->\\n    <!--[if lt IE 9]>\\n\\t<script src="http://html5shim.googlecode.com/svn/trunk/html5.js"></script>\\n\\t<![endif]-->\\n\\n  </head>\\n  <body>\\n    \\n    <!--start: Wrapper -->\\n    <div id="wrapper">\\n      \\n      <!--start: Container -->\\n      <div class="container">\\n\\t\\n\\t\\n\\t<!--start: Header -->\\n\\t<header>\\n\\t  \\n\\t  <!--start: Row -->\\n\\t  <div class="row">\\n\\t    \\n\\t    <!--start: Logo -->\\n\\t    <div class="logo span4">\\n\\t      <a class="brand" href="#"><img src="/distribuidora/static/custom/img/logo.png"></a>\\n\\t    </div>\\n\\t    <!--end: Logo -->\\n\\t    \\n\\t    <!--start: Social Links -->\\n\\t    <div class="span8">\\n\\t      <div id="social-links">\\n\\t\\t<ul class="social-small-grid">\\n\\t\\t  <li>\\n\\t\\t    <div class="social-small-item">\\t\\t\\t\\t\\n\\t\\t      <div class="social-small-info-wrap">\\n\\t\\t\\t<div class="social-small-info">\\n\\t\\t\\t  <div class="social-small-info-front social-small-twitter">\\n\\t\\t\\t    <a href="http://twitter.com"></a>\\n\\t\\t\\t  </div>\\n\\t\\t\\t  <div class="social-small-info-back social-small-twitter-hover">\\n\\t\\t\\t    <a href="http://twitter.com"></a>\\n\\t\\t\\t  </div>\\t\\n\\t\\t\\t</div>\\n\\t\\t      </div>\\n\\t\\t    </div>\\n\\t\\t  </li>\\n\\t\\t  <li>\\n\\t\\t    <div class="social-small-item">\\t\\t\\t\\t\\n\\t\\t      <div class="social-small-info-wrap">\\n\\t\\t\\t<div class="social-small-info">\\n\\t\\t\\t  <div class="social-small-info-front social-small-facebook">\\n\\t\\t\\t    <a href="http://facebook.com"></a>\\n\\t\\t\\t  </div>\\n\\t\\t\\t  <div class="social-small-info-back social-small-facebook-hover">\\n\\t\\t\\t    <a href="http://facebook.com"></a>\\n\\t\\t\\t  </div>\\t\\n\\t\\t\\t</div>\\n\\t\\t      </div>\\n\\t\\t    </div>\\n\\t\\t  </li>\\n\\t\\t  <li>\\n\\t\\t    <div class="social-small-item">\\t\\t\\t\\t\\n\\t\\t      <div class="social-small-info-wrap">\\n\\t\\t\\t<div class="social-small-info">\\n\\t\\t\\t  <div class="social-small-info-front social-small-dribbble">\\n\\t\\t\\t    <a href="http://dribbble.com"></a>\\n\\t\\t\\t  </div>\\n\\t\\t\\t  <div class="social-small-info-back social-small-dribbble-hover">\\n\\t\\t\\t    <a href="http://dribbble.com"></a>\\n\\t\\t\\t  </div>\\t\\n\\t\\t\\t</div>\\n\\t\\t      </div>\\n\\t\\t    </div>\\n\\t\\t  </li>\\n\\t\\t  <li>\\n\\t\\t    <div class="social-small-item">\\t\\t\\t\\t\\n\\t\\t      <div class="social-small-info-wrap">\\n\\t\\t\\t<div class="social-small-info">\\n\\t\\t\\t  <div class="social-small-info-front social-small-flickr">\\n\\t\\t\\t    <a href="http://flickr.com"></a>\\n\\t\\t\\t  </div>\\n\\t\\t\\t  <div class="social-small-info-back social-small-flickr-hover">\\n\\t\\t\\t    <a href="http://flickr.com"></a>\\n\\t\\t\\t  </div>\\t\\n\\t\\t\\t</div>\\n\\t\\t      </div>\\n\\t\\t    </div>\\n\\t\\t  </li>\\n\\t\\t</ul>\\n\\t      </div>\\n\\t    </div>\\n\\t    <!--end: Social Links -->\\n\\t    \\n\\t  </div>\\n\\t  <!--end: Row -->\\n\\t  \\n\\t</header>\\n\\t<!--end: Header-->\\n\\t\\n\\t<!--start: Navigation-->\\t\\n\\t<div class="navbar navbar-inverse">\\n    \\t  <div class="navbar-inner">\\n            <div class="container">\\n              <a class="btn btn-navbar" data-toggle="collapse" data-target=".nav-collapse">\\n            \\t<span class="icon-bar"></span>\\n            \\t<span class="icon-bar"></span>\\n            \\t<span class="icon-bar"></span>\\n              </a>\\n\\t      <div class="\', escape=False)'
p142
sI8
S"response.write('nav-collapse' if is_mobile else 'nav')"
p143
sI9
S'response.write(\'">\\n\\t\\t\', escape=False)'
p144
sI10
S'if response.menu:'
p145
sI11
S"    response.write('\\n\\t\\t', escape=False)"
p146
sI12
S"    response.write(MENU(response.menu, _class='mobile-menu nav' if is_mobile else 'nav',mobile=is_mobile,li_class='dropdown',ul_class='dropdown-menu'))"
p147
sI13
S"    response.write('\\n\\t\\t', escape=False)"
p148
sI14
S'    pass'
p149
sI15
S'response.write(\'\\n              </div><!--/.nav-collapse -->\\n              <!-- <div class="nav-collapse collapse"> -->\\n              <!-- \\t<\\\\!-- <ul class="nav"> -\\\\-> -->\\n              <!-- \\t<\\\\!--   <li class="active"><a href="index.html">Home</a></li> -\\\\-> -->\\n              <!-- \\t<\\\\!--   <li><a href="about.html">About</a></li> -\\\\-> -->\\n\\t      <!-- \\t<\\\\!--   <li><a href="services.html">Services</a></li> -\\\\-> -->\\n\\t      <!-- \\t<\\\\!--   <li><a href="pricing.html">Pricing</a></li> -\\\\-> -->\\n              <!-- \\t<\\\\!--   <li><a href="contact.html">Contact</a></li> -\\\\-> -->\\n              <!-- \\t<\\\\!--   <li class="dropdown"> -\\\\-> -->\\n              <!--   <\\\\!--     <a href="#" class="dropdown-toggle" data-toggle="dropdown">Dropdown <b class="caret"></b></a> -\\\\-> -->\\n              <!--   <\\\\!--     <ul class="dropdown-menu"> -\\\\-> -->\\n              <!--   <\\\\!--       <li><a href="#">Action</a></li> -\\\\-> -->\\n              <!--   <\\\\!--       <li><a href="#">Another action</a></li> -\\\\-> -->\\n              <!--   <\\\\!--       <li><a href="#">Something else here</a></li> -\\\\-> -->\\n              <!--   <\\\\!--       <li class="divider"></li> -\\\\-> -->\\n              <!--   <\\\\!--       <li class="nav-header">Nav header</li> -\\\\-> -->\\n              <!--   <\\\\!--       <li><a href="#">Separated link</a></li> -\\\\-> -->\\n              <!--   <\\\\!--       <li><a href="#">One more separated link</a></li> -\\\\-> -->\\n              <!--   <\\\\!--     </ul> -\\\\-> -->\\n              <!-- \\t<\\\\!--   </li> -\\\\-> -->\\n              <!-- \\t<\\\\!-- </ul> -\\\\-> -->\\n\\t      <!-- \\t\', escape=False)'
p150
sI16
S'response.write(MENU(response.menu, ul_class="nav", li_class="navbar"))'
p151
sI17
S'response.write(\' -->\\n              <!-- </div> -->\\n            </div>\\n      \\t  </div>\\n    \\t</div>\\n\\t<!--end: Navigation-->\\n\\t\\n      </div>\\n      <!--end: Container-->\\n      \\n      <!--start: Container -->\\n      <div class="container">\\n\\t\\n\\t<!-- start: Flexslider -->\\n\\t<div class="slider">\\n\\t  \\n\\t  <div class="flexslider">\\n\\t    <ul class="slides">\\n\\n\\t      <li>\\n\\t\\t<img src="/distribuidora/static/custom/img/slider/slider1.jpg" alt="" />\\n\\t\\t<div class="slide-caption n hidden-phone">\\n\\t\\t  <h3>This is a caption</h3>\\n\\t\\t  <p>\\n\\t\\t    Lorem ipsum dolor sit amet, consectetuer adipiscing elit, sed diam nonummy nibh euismod tincidunt ut laoreet dolore magna aliquam erat volutpat. Ut wisi enim ad minim veniam, quis nostrud exerci tation ullamcorper suscipit lobortis nisl ut aliquip ex ea commodo consequat.\\n\\t\\t  </p>\\n\\t\\t</div>\\n\\t      </li>\\n\\n\\t      <li>\\n\\t\\t<img src="/distribuidora/static/custom/img/slider/slider2.jpg" alt="" />\\n\\t\\t<div class="slide-caption hidden-phone">\\n\\t\\t  <h3>This is a caption</h3>\\n\\t\\t  <p>\\n\\t\\t    Lorem ipsum dolor sit amet, consectetuer adipiscing elit, sed diam nonummy nibh euismod tincidunt ut laoreet dolore magna aliquam erat volutpat. Ut wisi enim ad minim veniam, quis nostrud exerci tation ullamcorper suscipit lobortis nisl ut aliquip ex ea commodo consequat.\\n\\t\\t  </p>\\n\\t\\t</div>\\n\\t      </li>\\n\\n\\t      <li>\\n\\t\\t<img src="/distribuidora/static/custom/img/slider/slider3.jpg" alt="" />\\n\\t      </li>\\n\\n\\t    </ul>\\n\\t  </div>\\n\\t  \\n\\t</div>\\n\\t<!-- end: Flexslider -->\\n\\n      \\t<!-- start: Hero Unit - Main hero unit for a primary marketing message or call to action -->\\n      \\t<div class="hero-unit">\\n          <p>\\n\\t    This is a template for a simple marketing or informational website. It includes a large callout called the hero unit and three supporting pieces of content. Use it as a starting point to create something more unique.\\n\\t  </p>\\n          <p><a class="btn btn-success btn-large">Learn more &raquo;</a></p>\\n      \\t</div>\\n\\t<!-- end: Hero Unit -->\\n\\n      \\t<!-- start: Row -->\\n      \\t<div class="row">\\n\\t  \\n          <div class="span4">\\n            <div class="icons-box">\\n\\t      <i class="ico-ok circle big"></i>\\n\\t      <div class="title"><h3>Easy to use</h3></div>\\n\\t      <p>\\n\\t\\tLorem ipsum dolor sit amet, consectetuer adipiscing elit, sed diam nonummy nibh euismod tincidunt ut laoreet dolore magna aliquam erat volutpat.\\n\\t      </p>\\n\\t      <div class="clear"></div>\\n\\t    </div>\\n          </div>\\n\\n          <div class="span4">\\n            <div class="icons-box">\\n\\t      <i class="ico-ipad circle big"></i>\\n\\t      <div class="title"><h3>Responsive</h3></div>\\n\\t      <p>\\n\\t\\tLorem ipsum dolor sit amet, consectetuer adipiscing elit, sed diam nonummy nibh euismod tincidunt ut laoreet dolore magna aliquam erat volutpat.\\n\\t      </p>\\n\\t      <div class="clear"></div>\\n\\t    </div>\\n          </div>\\n\\n          <div class="span4">\\n            <div class="icons-box">\\n\\t      <i class="ico-heart circle big"></i>\\n\\t      <div class="title"><h3>User friendly</h3></div>\\n\\t      <p>\\n\\t\\tLorem ipsum dolor sit amet, consectetuer adipiscing elit, sed diam nonummy nibh euismod tincidunt ut laoreet dolore magna aliquam erat volutpat.\\n\\t      </p>\\n\\t      <div class="clear"></div>\\n\\t    </div>\\n          </div>\\n\\n      \\t</div>\\n\\t<!-- end: Row -->\\n      \\t\\n\\t<hr>\\n\\t\\n\\t<!-- start Clients List -->\\t\\n\\t<div class="clients-carousel">\\n\\t  \\n\\t  <ul class="slides clients">\\n\\t    <li><img src="/distribuidora/static/custom/img/logos/1.png" alt=""/></li>\\n\\t    <li><img src="/distribuidora/static/custom/img/logos/2.png" alt=""/></li>\\t\\n\\t    <li><img src="/distribuidora/static/custom/img/logos/3.png" alt=""/></li>\\n\\t    <li><img src="/distribuidora/static/custom/img/logos/4.png" alt=""/></li>\\n\\t    <li><img src="/distribuidora/static/custom/img/logos/5.png" alt=""/></li>\\n\\t    <li><img src="/distribuidora/static/custom/img/logos/6.png" alt=""/></li>\\n\\t    <li><img src="/distribuidora/static/custom/img/logos/7.png" alt=""/></li>\\n\\t    <li><img src="/distribuidora/static/custom/img/logos/8.png" alt=""/></li>\\n\\t    <li><img src="/distribuidora/static/custom/img/logos/9.png" alt=""/></li>\\n\\t    <li><img src="/distribuidora/static/custom/img/logos/10.png" alt=""/></li>\\t\\t\\n\\t  </ul>\\n\\t  \\n\\t</div>\\n\\t<!-- end Clients List -->\\n\\t\\n\\t<hr>\\n\\t\\n\\t<!-- start: Row -->\\n\\t<div class="row">\\n\\t  \\n\\t  <!-- start: Icon Boxes -->\\n\\t  <div class="icons-box-vert-container">\\n\\n\\t    <!-- start: Icon Box Start -->\\n\\t    <div class="span6">\\n\\t      <div class="icons-box-vert">\\n\\t\\t<i class="ico-ok ico-color circle-color big"></i>\\n\\t\\t<div class="icons-box-vert-info">\\n\\t\\t  <h3>Easy to use</h3>\\n\\t\\t  <p>Lorem ipsum dolor sit amet, consectetuer adipiscing elit, sed diam nonummy nibh euismod tincidunt ut laoreet dolore magna aliquam erat volutpat.</p>\\n\\t\\t</div>\\n\\t\\t<div class="clear"></div>\\n\\t      </div>\\n\\t    </div>\\n\\t    <!-- end: Icon Box-->\\n\\n\\t    <!-- start: Icon Box Start -->\\n\\t    <div class="span6">\\n\\t      <div class="icons-box-vert">\\n\\t\\t<i class="ico-cup  ico-white circle-color-full big-color"></i>\\n\\t\\t<div class="icons-box-vert-info">\\n\\t\\t  <h3>Best choice</h3>\\n\\t\\t  <p>Lorem ipsum dolor sit amet, consectetuer adipiscing elit, sed diam nonummy nibh euismod tincidunt ut laoreet dolore magna aliquam erat volutpat.</p>\\n\\t\\t</div>\\n\\t\\t<div class="clear"></div>\\n\\t      </div>\\n\\t    </div>\\n\\t    <!-- end: Icon Box -->\\n\\n\\t    <!-- start: Icon Box Start -->\\n\\t    <div class="span6">\\n\\t      <div class="icons-box-vert">\\n\\t\\t<i class="ico-ipad ico-color circle-color big"></i>\\n\\t\\t<div class="icons-box-vert-info">\\n\\t\\t  <h3>Fully Responsive</h3>\\n\\t\\t  <p>Lorem ipsum dolor sit amet, consectetuer adipiscing elit, sed diam nonummy nibh euismod tincidunt ut laoreet dolore magna aliquam erat volutpat.</p>\\n\\t\\t</div>\\n\\t\\t<div class="clear"></div>\\n\\t      </div>\\n\\t    </div>\\n\\t    <!-- end: Icon Box -->\\n\\n\\t    <!-- start: Icon Box Start -->\\n\\t    <div class="span6">\\n\\t      <div class="icons-box-vert">\\n\\t\\t<i class="ico-thumbs-up  ico-white circle-color-full big-color"></i>\\n\\t\\t<div class="icons-box-vert-info">\\n\\t\\t  <h3>Social Network</h3>\\n\\t\\t  <p>Lorem ipsum dolor sit amet, consectetuer adipiscing elit, sed diam nonummy nibh euismod tincidunt ut laoreet dolore magna aliquam erat volutpat.</p>\\n\\t\\t</div>\\n\\t\\t<div class="clear"></div>\\n\\t      </div>\\n\\t    </div>\\n\\t    <!-- end: Icon Box -->\\n\\n\\t  </div>\\n\\t  <!-- end: Icon Boxes -->\\n\\t  <div class="clear"></div>\\n\\t</div>\\n\\t<!-- end: Row -->\\n\\t\\n\\t<hr>\\n\\t\\n      </div>\\n      <!--end: Container-->\\n      \\n      <!--start: Container -->\\n      <div class="container">\\t\\t\\n\\n      \\t<!-- start: Footer Menu -->\\n\\t<div id="footer-menu" class="hidden-tablet hidden-phone">\\n\\n\\t  <!-- start: Container -->\\n\\t  <div class="container">\\n\\t    \\n\\t    <!-- start: Row -->\\n\\t    <div class="row">\\n\\n\\t      <!-- start: Footer Menu Logo -->\\n\\t      <div class="span1">\\n\\t\\t<div id="footer-menu-logo">\\n\\t\\t  <a href="#"><img src="/distribuidora/static/custom/img/logo-footer-menu.png" alt="logo" /></a>\\n\\t\\t</div>\\n\\t      </div>\\n\\t      <!-- end: Footer Menu Logo -->\\n\\n\\t      <!-- start: Footer Menu Links-->\\n\\t      <div class="span10">\\n\\t\\t\\n\\t\\t<div id="footer-menu-links">\\n\\n\\t\\t  <ul id="footer-nav">\\n\\n\\t\\t    <li><a href="index.html">Start</a></li>\\n\\n\\t\\t    <li><a href="about.html">About</a></li>\\n\\n\\t\\t    <li><a href="services.html">Services</a></li>\\n\\n\\t\\t    <li><a href="pricing.html">Pricing</a></li>\\n\\t\\t    \\n\\t\\t    <li><a href="contact.html">Contact</a></li>\\n\\n\\t\\t  </ul>\\n\\n\\t\\t</div>\\n\\t\\t\\n\\t      </div>\\n\\t      <!-- end: Footer Menu Links-->\\n\\n\\t      <!-- start: Footer Menu Back To Top -->\\n\\t      <div class="span1">\\n\\t\\t\\n\\t\\t<div id="footer-menu-back-to-top">\\n\\t\\t  <a href="#"></a>\\n\\t\\t</div>\\n\\t\\t\\n\\t      </div>\\n\\t      <!-- end: Footer Menu Back To Top -->\\n\\t      \\n\\t    </div>\\n\\t    <!-- end: Row -->\\n\\t    \\n\\t  </div>\\n\\t  <!-- end: Container  -->\\t\\n\\n\\t</div>\\t\\n\\t<!-- end: Footer Menu -->\\n\\n\\t<!-- start: Footer -->\\n\\t<div id="footer">\\n\\t  \\n\\t  <!-- start: Container -->\\n\\t  <div class="container">\\n\\t    \\n\\t    <!-- start: Row -->\\n\\t    <div class="row">\\n\\n\\t      <!-- start: About -->\\n\\t      <div class="span3">\\n\\t\\t\\n\\t\\t<h3>About Us</h3>\\n\\t\\t<p>\\n\\t\\t  Lorem ipsum dolor sit amet, consectetuer adipiscing elit, sed diam nonummy nibh euismod tincidunt ut laoreet dolore magna aliquam erat volutpat. Ut wisi enim ad minim veniam, quis nostrud exerci tation ullamcorper suscipit lobortis nisl ut aliquip ex ea commodo consequat.\\n\\t\\t</p>\\n\\t\\t\\n\\t      </div>\\n\\t      <!-- end: About -->\\n\\n\\t      <!-- start: Photo Stream -->\\n\\t      <div class="span3">\\n\\t\\t\\n\\t\\t<h3>Photo Stream</h3>\\n\\t\\t<div class="flickr-widget">\\n\\t\\t  <script type="text/javascript" src="http://www.flickr.com/badge_code_v2.gne?count=9&display=latest&size=s&layout=x&source=user&user=29609591@N08"></script>\\n\\t\\t  <div class="clear"></div>\\n\\t\\t</div>\\n\\t\\t\\n\\t      </div>\\n\\t      <!-- end: Photo Stream -->\\n\\n\\t      \\n\\t      <div class="span6">\\n\\t\\t\\n\\t\\t<!-- start: Follow Us -->\\n\\t\\t<h3>Follow Us!</h3>\\n\\t\\t<ul class="social-grid">\\n\\t\\t  <li>\\n\\t\\t    <div class="social-item">\\t\\t\\t\\t\\n\\t\\t      <div class="social-info-wrap">\\n\\t\\t\\t<div class="social-info">\\n\\t\\t\\t  <div class="social-info-front social-twitter">\\n\\t\\t\\t    <a href="http://twitter.com"></a>\\n\\t\\t\\t  </div>\\n\\t\\t\\t  <div class="social-info-back social-twitter-hover">\\n\\t\\t\\t    <a href="http://twitter.com"></a>\\n\\t\\t\\t  </div>\\t\\n\\t\\t\\t</div>\\n\\t\\t      </div>\\n\\t\\t    </div>\\n\\t\\t  </li>\\n\\t\\t  <li>\\n\\t\\t    <div class="social-item">\\t\\t\\t\\t\\n\\t\\t      <div class="social-info-wrap">\\n\\t\\t\\t<div class="social-info">\\n\\t\\t\\t  <div class="social-info-front social-facebook">\\n\\t\\t\\t    <a href="http://facebook.com"></a>\\n\\t\\t\\t  </div>\\n\\t\\t\\t  <div class="social-info-back social-facebook-hover">\\n\\t\\t\\t    <a href="http://facebook.com"></a>\\n\\t\\t\\t  </div>\\n\\t\\t\\t</div>\\n\\t\\t      </div>\\n\\t\\t    </div>\\n\\t\\t  </li>\\n\\t\\t  <li>\\n\\t\\t    <div class="social-item">\\t\\t\\t\\t\\n\\t\\t      <div class="social-info-wrap">\\n\\t\\t\\t<div class="social-info">\\n\\t\\t\\t  <div class="social-info-front social-dribbble">\\n\\t\\t\\t    <a href="http://dribbble.com"></a>\\n\\t\\t\\t  </div>\\n\\t\\t\\t  <div class="social-info-back social-dribbble-hover">\\n\\t\\t\\t    <a href="http://dribbble.com"></a>\\n\\t\\t\\t  </div>\\t\\n\\t\\t\\t</div>\\n\\t\\t      </div>\\n\\t\\t    </div>\\n\\t\\t  </li>\\n\\t\\t  <li>\\n\\t\\t    <div class="social-item">\\t\\t\\t\\t\\n\\t\\t      <div class="social-info-wrap">\\n\\t\\t\\t<div class="social-info">\\n\\t\\t\\t  <div class="social-info-front social-flickr">\\n\\t\\t\\t    <a href="http://flickr.com"></a>\\n\\t\\t\\t  </div>\\n\\t\\t\\t  <div class="social-info-back social-flickr-hover">\\n\\t\\t\\t    <a href="http://flickr.com"></a>\\n\\t\\t\\t  </div>\\t\\n\\t\\t\\t</div>\\n\\t\\t      </div>\\n\\t\\t    </div>\\n\\t\\t  </li>\\n\\t\\t</ul>\\n\\t\\t<!-- end: Follow Us -->\\n\\t\\t\\n\\t\\t<!-- start: Newsletter -->\\n\\t\\t<form id="newsletter">\\n\\t\\t  <h3>Newsletter</h3>\\n\\t\\t  <p>Please leave us your email</p>\\n\\t\\t  <label for="newsletter_input">@:</label>\\n\\t\\t  <input type="text" id="newsletter_input"/>\\n\\t\\t  <input type="submit" id="newsletter_submit" value="submit">\\n\\t\\t</form>\\n\\t\\t<!-- end: Newsletter -->\\n\\t\\t\\n\\t      </div>\\n\\t      \\n\\t    </div>\\n\\t    <!-- end: Row -->\\t\\n\\t    \\n\\t  </div>\\n\\t  <!-- end: Container  -->\\n\\n\\t</div>\\n\\t<!-- end: Footer -->\\n\\t\\n      </div>\\n      <!-- end: Container  -->\\n\\n    </div>\\n    <!-- end: Wrapper  -->\\n\\n\\n    <!-- start: Copyright -->\\n    <div id="copyright">\\n      \\n      <!-- start: Container -->\\n      <div class="container">\\n\\t\\n\\t<p>\\n\\t  &copy; 2013, creativeLabs. <a href="http://bootstrapmaster.com" alt="Bootstrap Themes">Bootstrap Themes</a> Designed by BootstrapMaster in Poland <img src="/distribuidora/static/custom/img/poland.png" alt="Poland" style="margin-top:-4px">\\n\\t</p>\\n\\t\\n      </div>\\n      <!-- end: Container  -->\\n      \\n    </div>\\t\\n    <!-- end: Copyright -->\\n\\n    <!-- start: Java Script -->\\n    <!-- Placed at the end of the document so the pages load faster -->\\n    <script src="\', escape=False)'
p152
sI18
S"response.write(URL('static','custom/js/jquery-1.8.2.js'))"
p153
ssg83
S'()'
p154
sg85
S'<module>'
p155
sasS'pyver'
p156
S'Python 2.7.8: /usr/bin/python (prefix: /usr)'
p157
sS'session'
p158
g57
(S's\x1a\x00\x00\x00<div><table></table></div>'
tRp159
sS'etype'
p160
S"<type 'exceptions.NameError'>"
p161
sS'date'
p162
S'Mon Jul 21 20:52:41 2014'
p163
sS'response'
p164
g57
(S's\xca0\x00\x00<div><table><tr><td style="font-weight:bold;vertical-align:top;">body</td><td style="vertical-align:top;">:</td><td><div>&lt;cStringIO.StringO object at 0x7fb7d96db260&gt;</div></td></tr><tr><td style="font-weight:bold;vertical-align:top;">cookies</td><td style="vertical-align:top;">:</td><td><div><table><tr><td style="font-weight:bold;vertical-align:top;">session_id_distribuidora</td><td style="vertical-align:top;">:</td><td><div>127.0.0.1-ec3235ba-712f-4fa8-8919-dfcdccea2f4e<table><tr><td style="font-weight:bold;vertical-align:top;">comment</td><td style="vertical-align:top;">:</td><td><div></div></td></tr><tr><td style="font-weight:bold;vertical-align:top;">domain</td><td style="vertical-align:top;">:</td><td><div></div></td></tr><tr><td style="font-weight:bold;vertical-align:top;">expires</td><td style="vertical-align:top;">:</td><td><div></div></td></tr><tr><td style="font-weight:bold;vertical-align:top;">httponly</td><td style="vertical-align:top;">:</td><td><div></div></td></tr><tr><td style="font-weight:bold;vertical-align:top;">max-age</td><td style="vertical-align:top;">:</td><td><div></div></td></tr><tr><td style="font-weight:bold;vertical-align:top;">path</td><td style="vertical-align:top;">:</td><td><div>/</div></td></tr><tr><td style="font-weight:bold;vertical-align:top;">secure</td><td style="vertical-align:top;">:</td><td><div></div></td></tr><tr><td style="font-weight:bold;vertical-align:top;">version</td><td style="vertical-align:top;">:</td><td><div></div></td></tr></table></div></td></tr></table></div></td></tr><tr><td style="font-weight:bold;vertical-align:top;">delimiters</td><td style="vertical-align:top;">:</td><td><div><table><tr><td><div>{{</div></td></tr><tr><td><div>}}</div></td></tr></table></div></td></tr><tr><td style="font-weight:bold;vertical-align:top;">files</td><td style="vertical-align:top;">:</td><td><div><table></table></div></td></tr><tr><td style="font-weight:bold;vertical-align:top;">flash</td><td style="vertical-align:top;">:</td><td><div>Welcome to web2py!</div></td></tr><tr><td style="font-weight:bold;vertical-align:top;">generic_patterns</td><td style="vertical-align:top;">:</td><td><div><table><tr><td><div>*</div></td></tr></table></div></td></tr><tr><td style="font-weight:bold;vertical-align:top;">google_analytics_id</td><td style="vertical-align:top;">:</td><td><div>None</div></td></tr><tr><td style="font-weight:bold;vertical-align:top;">headers</td><td style="vertical-align:top;">:</td><td><div><table><tr><td style="font-weight:bold;vertical-align:top;">X-Powered-By</td><td style="vertical-align:top;">:</td><td><div>web2py</div></td></tr></table></div></td></tr><tr><td style="font-weight:bold;vertical-align:top;">logo</td><td style="vertical-align:top;">:</td><td><div><a class="brand" href="http://www.web2py.com/"><b>web<span>2</span>py</b>&trade;&nbsp;</a></div></td></tr><tr><td style="font-weight:bold;vertical-align:top;">menu</td><td style="vertical-align:top;">:</td><td><div><table><tr><td><div><table><tr><td><div>Home</div></td></tr><tr><td><div>False</div></td></tr><tr><td><div>/distribuidora/default/index</div></td></tr><tr><td><div><table></table></div></td></tr></table></div></td></tr><tr><td><div><table><tr><td><div><span class="highlighted">web2py</span></div></td></tr><tr><td><div>False</div></td></tr><tr><td><div>http://web2py.com</div></td></tr><tr><td><div><table><tr><td><div><table><tr><td><div>My Sites</div></td></tr><tr><td><div>False</div></td></tr><tr><td><div>/admin/default/site</div></td></tr></table></div></td></tr><tr><td><div><table><tr><td><div>This App</div></td></tr><tr><td><div>False</div></td></tr><tr><td><div>/admin/default/design/distribuidora</div></td></tr><tr><td><div>[(&lt;lazyT &#x27;Controller&#x27;&gt;, False, &#x27;/admin/default/edit/distribuidora/controllers/default.py&#x27;), (&lt;lazyT &#x27;View&#x27;&gt;, False, &#x27;/admin/default/edit/distribuidora/views/default/index.html&#x27;), (&lt;lazyT &#x27;Layout&#x27;&gt;, False, &#x27;/admin/default/edit/distribuidora/views/layout.html&#x27;), (&lt;lazyT &#x27;Stylesheet&#x27;&gt;, False, &#x27;/admin/default/edit/distribuidora/static/css/web2py.css&#x27;), (&lt;lazyT &#x27;DB Model&#x27;&gt;, False, &#x27;/admin/default/edit/distribuidora/models/db.py&#x27;), (&lt;lazyT &#x27;Menu Model&#x27;&gt;, False, &#x27;/admin/default/edit/distribuidora/models/menu.py&#x27;), (&lt;lazyT &#x27;Database&#x27;&gt;, False, &#x27;/distribuidora/appadmin/index&#x27;), (&lt;lazyT &#x27;Errors&#x27;&gt;, False, &#x27;/admin/default/errors/distribuidora&#x27;), (&lt;lazyT &#x27;About&#x27;&gt;, False, &#x27;/admin/default/about/distribuidora&#x27;)]</div></td></tr></table></div></td></tr><tr><td><div><table><tr><td><div>web2py.com</div></td></tr><tr><td><div>False</div></td></tr><tr><td><div>http://www.web2py.com</div></td></tr><tr><td><div>[(&lt;lazyT &#x27;Download&#x27;&gt;, False, &#x27;http://www.web2py.com/examples/default/download&#x27;), (&lt;lazyT &#x27;Support&#x27;&gt;, False, &#x27;http://www.web2py.com/examples/default/support&#x27;), (&lt;lazyT &#x27;Demo&#x27;&gt;, False, &#x27;http://web2py.com/demo_admin&#x27;), (&lt;lazyT &#x27;Quick Examples&#x27;&gt;, False, &#x27;http://web2py.com/examples/default/examples&#x27;), (&lt;lazyT &#x27;FAQ&#x27;&gt;, False, &#x27;http://web2py.com/AlterEgo&#x27;), (&lt;lazyT &#x27;Videos&#x27;&gt;, False, &#x27;http://www.web2py.com/examples/default/videos/&#x27;), (&lt;lazyT &#x27;Free Applications&#x27;&gt;, False, &#x27;http://web2py.com/appliances&#x27;), (&lt;lazyT &#x27;Plugins&#x27;&gt;, False, &#x27;http://web2py.com/plugins&#x27;), (&lt;lazyT &#x27;Layouts&#x27;&gt;, False, &#x27;http://web2py.com/layouts&#x27;), (&lt;lazyT &#x27;Recipes&#x27;&gt;, False, &#x27;http://web2pyslices.com/&#x27;), (&lt;lazyT &#x27;Semantic&#x27;&gt;, False, &#x27;http://web2py.com/semantic&#x27;)]</div></td></tr></table></div></td></tr><tr><td><div><table><tr><td><div>Documentation</div></td></tr><tr><td><div>False</div></td></tr><tr><td><div>http://www.web2py.com/book</div></td></tr><tr><td><div>[(&lt;lazyT &#x27;Preface&#x27;&gt;, False, &#x27;http://www.web2py.com/book/default/chapter/00&#x27;), (&lt;lazyT &#x27;Introduction&#x27;&gt;, False, &#x27;http://www.web2py.com/book/default/chapter/01&#x27;), (&lt;lazyT &#x27;Python&#x27;&gt;, False, &#x27;http://www.web2py.com/book/default/chapter/02&#x27;), (&lt;lazyT &#x27;Overview&#x27;&gt;, False, &#x27;http://www.web2py.com/book/default/chapter/03&#x27;), (&lt;lazyT &#x27;The Core&#x27;&gt;, False, &#x27;http://www.web2py.com/book/default/chapter/04&#x27;), (&lt;lazyT &#x27;The Views&#x27;&gt;, False, &#x27;http://www.web2py.com/book/default/chapter/05&#x27;), (&lt;lazyT &#x27;Database&#x27;&gt;, False, &#x27;http://www.web2py.com/book/default/chapter/06&#x27;), (&lt;lazyT &#x27;Forms and Validators&#x27;&gt;, False, &#x27;http://www.web2py.com/book/default/chapter/07&#x27;), (&lt;lazyT &#x27;Email and SMS&#x27;&gt;, False, &#x27;http://www.web2py.com/book/default/chapter/08&#x27;), (&lt;lazyT &#x27;Access Control&#x27;&gt;, False, &#x27;http://www.web2py.com/book/default/chapter/09&#x27;), (&lt;lazyT &#x27;Services&#x27;&gt;, False, &#x27;http://www.web2py.com/book/default/chapter/10&#x27;), (&lt;lazyT &#x27;Ajax Recipes&#x27;&gt;, False, &#x27;http://www.web2py.com/book/default/chapter/11&#x27;), (&lt;lazyT &#x27;Components and Plugins&#x27;&gt;, False, &#x27;http://www.web2py.com/book/default/chapter/12&#x27;), (&lt;lazyT &#x27;Deployment Recipes&#x27;&gt;, False, &#x27;http://www.web2py.com/book/default/chapter/13&#x27;), (&lt;lazyT &#x27;Other Recipes&#x27;&gt;, False, &#x27;http://www.web2py.com/book/default/chapter/14&#x27;), (&lt;lazyT &#x27;Buy this book&#x27;&gt;, False, &#x27;http://stores.lulu.com/web2py&#x27;)]</div></td></tr></table></div></td></tr><tr><td><div><table><tr><td><div>Community</div></td></tr><tr><td><div>False</div></td></tr><tr><td><div>None</div></td></tr><tr><td><div>[(&lt;lazyT &#x27;Groups&#x27;&gt;, False, &#x27;http://www.web2py.com/examples/default/usergroups&#x27;), (&lt;lazyT &#x27;Twitter&#x27;&gt;, False, &#x27;http://twitter.com/web2py&#x27;), (&lt;lazyT &#x27;Live Chat&#x27;&gt;, False, &#x27;http://webchat.freenode.net/?channels=web2py&#x27;)]</div></td></tr></table></div></td></tr><tr><td><div><table><tr><td><div>Plugins</div></td></tr><tr><td><div>False</div></td></tr><tr><td><div>None</div></td></tr><tr><td><div>[(&#x27;plugin_wiki&#x27;, False, &#x27;http://web2py.com/examples/default/download&#x27;), (&lt;lazyT &#x27;Other Plugins&#x27;&gt;, False, &#x27;http://web2py.com/plugins&#x27;), (&lt;lazyT &#x27;Layout Plugins&#x27;&gt;, False, &#x27;http://web2py.com/layouts&#x27;)]</div></td></tr></table></div></td></tr></table></div></td></tr></table></div></td></tr></table></div></td></tr><tr><td style="font-weight:bold;vertical-align:top;">meta</td><td style="vertical-align:top;">:</td><td><div><table><tr><td style="font-weight:bold;vertical-align:top;">author</td><td style="vertical-align:top;">:</td><td><div>Your Name &lt;you@example.com&gt;</div></td></tr><tr><td style="font-weight:bold;vertical-align:top;">generator</td><td style="vertical-align:top;">:</td><td><div>Web2py Web Framework</div></td></tr><tr><td style="font-weight:bold;vertical-align:top;">keywords</td><td style="vertical-align:top;">:</td><td><div>web2py, python, framework</div></td></tr></table></div></td></tr><tr><td style="font-weight:bold;vertical-align:top;">models_to_run</td><td style="vertical-align:top;">:</td><td><div><table><tr><td><div>^\\w+\\.py$</div></td></tr><tr><td><div>^default/\\w+\\.py$</div></td></tr><tr><td><div>^default/index/\\w+\\.py$</div></td></tr></table></div></td></tr><tr><td style="font-weight:bold;vertical-align:top;">postprocessing</td><td style="vertical-align:top;">:</td><td><div><table></table></div></td></tr><tr><td style="font-weight:bold;vertical-align:top;">session_client</td><td style="vertical-align:top;">:</td><td><div>127.0.0.1</div></td></tr><tr><td style="font-weight:bold;vertical-align:top;">session_cookie_compression_level</td><td style="vertical-align:top;">:</td><td><div>None</div></td></tr><tr><td style="font-weight:bold;vertical-align:top;">session_cookie_expires</td><td style="vertical-align:top;">:</td><td><div>None</div></td></tr><tr><td style="font-weight:bold;vertical-align:top;">session_cookie_key</td><td style="vertical-align:top;">:</td><td><div>None</div></td></tr><tr><td style="font-weight:bold;vertical-align:top;">session_data_name</td><td style="vertical-align:top;">:</td><td><div>session_data_distribuidora</div></td></tr><tr><td style="font-weight:bold;vertical-align:top;">session_file</td><td style="vertical-align:top;">:</td><td><div>None</div></td></tr><tr><td style="font-weight:bold;vertical-align:top;">session_filename</td><td style="vertical-align:top;">:</td><td><div>/home/marco/trabajo/experimental/web2py/applications/distribuidora/sessions/127.0.0.1-ec3235ba-712f-4fa8-8919-dfcdccea2f4e</div></td></tr><tr><td style="font-weight:bold;vertical-align:top;">session_hash</td><td style="vertical-align:top;">:</td><td><div>106f4c22ca06cc343e42b73a0d8492f6</div></td></tr><tr><td style="font-weight:bold;vertical-align:top;">session_id</td><td style="vertical-align:top;">:</td><td><div>127.0.0.1-ec3235ba-712f-4fa8-8919-dfcdccea2f4e</div></td></tr><tr><td style="font-weight:bold;vertical-align:top;">session_id_name</td><td style="vertical-align:top;">:</td><td><div>session_id_distribuidora</div></td></tr><tr><td style="font-weight:bold;vertical-align:top;">session_masterapp</td><td style="vertical-align:top;">:</td><td><div>distribuidora</div></td></tr><tr><td style="font-weight:bold;vertical-align:top;">session_new</td><td style="vertical-align:top;">:</td><td><div>True</div></td></tr><tr><td style="font-weight:bold;vertical-align:top;">session_storage_type</td><td style="vertical-align:top;">:</td><td><div>file</div></td></tr><tr><td style="font-weight:bold;vertical-align:top;">status</td><td style="vertical-align:top;">:</td><td><div>200</div></td></tr><tr><td style="font-weight:bold;vertical-align:top;">subtitle</td><td style="vertical-align:top;">:</td><td><div></div></td></tr><tr><td style="font-weight:bold;vertical-align:top;">title</td><td style="vertical-align:top;">:</td><td><div>Distribuidora</div></td></tr><tr><td style="font-weight:bold;vertical-align:top;">view</td><td style="vertical-align:top;">:</td><td><div>default/index.html</div></td></tr></table></div>'
tRp165
sS'locals'
p166
(dp167
S'Service'
p168
S"<class 'gluon.tools.Service'>"
p169
sS'OBJECT'
p170
S"<class 'gluon.html.OBJECT'>"
p171
sS'SQLDB'
p172
S"<class 'gluon.dal.DAL'>"
p173
sg158
S'<Storage {}>'
p174
sS'LINK'
p175
S"<class 'gluon.html.LINK'>"
p176
sS'BR'
p177
S"<class 'gluon.html.BR'>"
p178
sS'local_import'
p179
S'<function <lambda>>'
p180
sS'OPTGROUP'
p181
S"<class 'gluon.html.OPTGROUP'>"
p182
sS'__package__'
p183
S'None'
p184
sS'PRE'
p185
S"<class 'gluon.html.PRE'>"
p186
sS'IS_INT_IN_RANGE'
p187
S"<class 'gluon.validators.IS_INT_IN_RANGE'>"
p188
sS'IS_LOWER'
p189
S"<class 'gluon.validators.IS_LOWER'>"
p190
sS'IS_STRONG'
p191
S"<class 'gluon.validators.IS_STRONG'>"
p192
sS'cache'
p193
S'<gluon.cache.Cache object>'
p194
sS'IS_IN_DB'
p195
S"<class 'gluon.validators.IS_IN_DB'>"
p196
sS'TAG'
p197
S'<gluon.html.__TAG__ object>'
p198
sS'SQLField'
p199
S"<class 'gluon.dal.Field'>"
p200
sS'mail'
p201
S'<gluon.tools.Mail object>'
p202
sS'BODY'
p203
S"<class 'gluon.html.BODY'>"
p204
sS'IS_DATE_IN_RANGE'
p205
S"<class 'gluon.validators.IS_DATE_IN_RANGE'>"
p206
sS'IFRAME'
p207
S"<class 'gluon.html.IFRAME'>"
p208
sS'URL'
p209
S'<function URL>'
p210
sS'__file__'
p211
S"'/home/marco/trabajo/experimental/web2py/applications/distribuidora/views/default/index.html'"
p212
sS'db'
p213
S'<DAL uri="sqlite://storage.sqlite">'
p214
sS'auth'
p215
S'<gluon.tools.Auth object>'
p216
sS'P'
S"<class 'gluon.html.P'>"
p217
sS'TFOOT'
p218
S"<class 'gluon.html.TFOOT'>"
p219
sS'XHTML'
p220
S"<class 'gluon.html.XHTML'>"
p221
sS'ON'
p222
S'True'
p223
sS'OL'
p224
S"<class 'gluon.html.OL'>"
p225
sS'TEXTAREA'
p226
S"<class 'gluon.html.TEXTAREA'>"
p227
sS'MENU'
p228
S"<class 'gluon.html.MENU'>"
p229
sS'IS_IMAGE'
p230
S"<class 'gluon.validators.IS_IMAGE'>"
p231
sS'EM'
p232
S"<class 'gluon.html.EM'>"
p233
sS'CODE'
p234
S"<class 'gluon.html.CODE'>"
p235
sS'HTTP'
p236
S"<class 'gluon.http.HTTP'>"
p237
sS'HR'
p238
S"<class 'gluon.html.HR'>"
p239
sS'IS_DATETIME'
p240
S"<class 'gluon.validators.IS_DATETIME'>"
p241
sS'STYLE'
p242
S"<class 'gluon.html.STYLE'>"
p243
sS'LABEL'
p244
S"<class 'gluon.html.LABEL'>"
p245
sS'CLEANUP'
p246
S"<class 'gluon.validators.CLEANUP'>"
p247
sS'plugins'
p248
S'<gluon.tools.PluginManager object>'
p249
sS'SELECT'
p250
S"<class 'gluon.html.SELECT'>"
p251
sS'use_janrain'
p252
S'<function use_janrain>'
p253
sS'CENTER'
p254
S"<class 'gluon.html.CENTER'>"
p255
sS'prettydate'
p256
S'<function prettydate>'
p257
sS'Crud'
p258
S"<class 'gluon.tools.Crud'>"
p259
sS'Auth'
p260
S"<class 'gluon.tools.Auth'>"
p261
sS'DEVELOPMENT_MENU'
p262
g223
sS'__builtins__'
p263
S"{'ArithmeticError': <type 'exceptions.ArithmeticError'>, 'AssertionError': <type 'exceptions.AssertionError'>, 'AttributeError': <type 'exceptions.AttributeError'>, 'BaseException': <type 'exceptions.BaseException'>, 'BufferError': <type 'exceptions.BufferError'>, 'BytesWarning': <type 'exceptions.BytesWarning'>, 'DeprecationWarning': <type 'exceptions.DeprecationWarning'>, 'EOFError': <type 'exceptions.EOFError'>, 'Ellipsis': Ellipsis, 'EnvironmentError': <type 'exceptions.EnvironmentError'>, ...}"
p264
sS'HTML'
p265
S"<class 'gluon.html.HTML'>"
p266
sS'SQLFORM'
p267
S"<class 'gluon.sqlhtml.SQLFORM'>"
p268
sS'LOAD'
p269
S'<function LOAD>'
p270
sS'redirect'
p271
S'<function redirect>'
p272
sS'FIELDSET'
p273
S"<class 'gluon.html.FIELDSET'>"
p274
sS'IS_EQUAL_TO'
p275
S"<class 'gluon.validators.IS_EQUAL_TO'>"
p276
sS'embed64'
p277
S'<function embed64>'
p278
sS'IS_LIST_OF'
p279
S"<class 'gluon.validators.IS_LIST_OF'>"
p280
sS'INPUT'
p281
S"<class 'gluon.html.INPUT'>"
p282
sS'EMBED'
p283
S"<class 'gluon.html.EMBED'>"
p284
sS'_'
S'<function _>'
p285
sS'H2'
p286
S"<class 'gluon.html.H2'>"
p287
sS'H3'
p288
S"<class 'gluon.html.H3'>"
p289
sS'BUTTON'
p290
S"<class 'gluon.html.BUTTON'>"
p291
sS'H1'
p292
S"<class 'gluon.html.H1'>"
p293
sS'H6'
p294
S"<class 'gluon.html.H6'>"
p295
sS'H4'
p296
S"<class 'gluon.html.H4'>"
p297
sS'H5'
p298
S"<class 'gluon.html.H5'>"
p299
sS'UL'
p300
S"<class 'gluon.html.UL'>"
p301
sS'IS_UPPER'
p302
S"<class 'gluon.validators.IS_UPPER'>"
p303
sS'xmlescape'
p304
S'<function xmlescape>'
p305
sS'IS_TIME'
p306
S"<class 'gluon.validators.IS_TIME'>"
p307
sS'OPTION'
p308
S"<class 'gluon.html.OPTION'>"
p309
sS'TITLE'
p310
S"<class 'gluon.html.TITLE'>"
p311
sS'CRYPT'
p312
S"<class 'gluon.validators.CRYPT'>"
p313
sS'IS_EMPTY_OR'
p314
S"<class 'gluon.validators.IS_EMPTY_OR'>"
p315
sS'MARKMIN'
p316
S"<class 'gluon.html.MARKMIN'>"
p317
sS'__name__'
p318
S"'__restricted__'"
p319
sS'message'
p320
S"<lazyT 'Hello World'>"
p321
sS'STRONG'
p322
S"<class 'gluon.html.STRONG'>"
p323
sS'COL'
p324
S"<class 'gluon.html.COL'>"
p325
sS'service'
p326
S'<gluon.tools.Service object>'
p327
sS'SCRIPT'
p328
S"<class 'gluon.html.SCRIPT'>"
p329
sS'TABLE'
p330
S"<class 'gluon.html.TABLE'>"
p331
sS'IS_IPV4'
p332
S"<class 'gluon.validators.IS_IPV4'>"
p333
sS'IS_LENGTH'
p334
S"<class 'gluon.validators.IS_LENGTH'>"
p335
sS'IS_IPV6'
p336
S"<class 'gluon.validators.IS_IPV6'>"
p337
sS'XML'
p338
S"<class 'gluon.html.XML'>"
p339
sS'B'
S"<class 'gluon.html.B'>"
p340
sS'IMG'
p341
S"<class 'gluon.html.IMG'>"
p342
sS'SQLTABLE'
p343
S"<class 'gluon.sqlhtml.SQLTABLE'>"
p344
sS'IS_MATCH'
p345
S"<class 'gluon.validators.IS_MATCH'>"
p346
sS'IS_ALPHANUMERIC'
p347
S"<class 'gluon.validators.IS_ALPHANUMERIC'>"
p348
sS'SPAN'
p349
S"<class 'gluon.html.SPAN'>"
p350
sS'IS_JSON'
p351
S"<class 'gluon.validators.IS_JSON'>"
p352
sS'IS_IPADDRESS'
p353
S"<class 'gluon.validators.IS_IPADDRESS'>"
p354
sS'IS_SLUG'
p355
S"<class 'gluon.validators.IS_SLUG'>"
p356
sS'BEAUTIFY'
p357
S"<class 'gluon.html.BEAUTIFY'>"
p358
sS'META'
p359
S"<class 'gluon.html.META'>"
p360
sS'IS_DATE'
p361
S"<class 'gluon.validators.IS_DATE'>"
p362
sS'IS_EMAIL'
p363
S"<class 'gluon.validators.IS_EMAIL'>"
p364
sS'IS_NOT_EMPTY'
p365
S"<class 'gluon.validators.IS_NOT_EMPTY'>"
p366
sS'IS_FLOAT_IN_RANGE'
p367
S"<class 'gluon.validators.IS_FLOAT_IN_RANGE'>"
p368
sS'TBODY'
p369
S"<class 'gluon.html.TBODY'>"
p370
sS'CAT'
p371
S"<class 'gluon.html.CAT'>"
p372
sS'Field'
p373
S"<class 'gluon.dal.Field'>"
p374
sS'IS_LIST_OF_EMAILS'
p375
S"<class 'gluon.validators.IS_LIST_OF_EMAILS'>"
p376
sS'DIV'
p377
S"<class 'gluon.html.DIV'>"
p378
sS'LEGEND'
p379
S"<class 'gluon.html.LEGEND'>"
p380
sS'COLGROUP'
p381
S"<class 'gluon.html.COLGROUP'>"
p382
sS'DAL'
p383
S"<class 'gluon.dal.DAL'>"
p384
sS'TT'
p385
S"<class 'gluon.html.TT'>"
p386
sS'TR'
p387
S"<class 'gluon.html.TR'>"
p388
sS'LI'
p389
S"<class 'gluon.html.LI'>"
p390
sS'TH'
p391
S"<class 'gluon.html.TH'>"
p392
sS'TD'
p393
S"<class 'gluon.html.TD'>"
p394
sS'PluginManager'
p395
S"<class 'gluon.tools.PluginManager'>"
p396
sS'IS_URL'
p397
S"<class 'gluon.validators.IS_URL'>"
p398
sS'A'
S"<class 'gluon.html.A'>"
p399
sS'HEAD'
p400
S"<class 'gluon.html.HEAD'>"
p401
sS'IS_DATETIME_IN_RANGE'
p402
S"<class 'gluon.validators.IS_DATETIME_IN_RANGE'>"
p403
sS'FORM'
p404
S"<class 'gluon.html.FORM'>"
p405
sS'I'
S"<class 'gluon.html.I'>"
p406
sS'crud'
p407
S'<gluon.tools.Crud object>'
p408
sS'IS_NOT_IN_DB'
p409
S"<class 'gluon.validators.IS_NOT_IN_DB'>"
p410
sg164
S"<Storage {'body': <cStringIO.StringO object at 0...t 0x7fb7d95d9320>, 'view': 'default/index.html'}>"
p411
sS'THEAD'
p412
S"<class 'gluon.html.THEAD'>"
p413
sS'ANY_OF'
p414
S"<class 'gluon.validators.ANY_OF'>"
p415
sS'IS_NULL_OR'
p416
S"<class 'gluon.validators.IS_EMPTY_OR'>"
p417
sg56
S"<Storage {'_vars': None, 'function': 'index', 'c...xperimental/web2py/applications/distribuidora/'}>"
p418
sS'IS_EXPR'
p419
S"<class 'gluon.validators.IS_EXPR'>"
p420
sS'T'
S'<gluon.languages.translator object>'
p421
sS'IS_IN_SET'
p422
S"<class 'gluon.validators.IS_IN_SET'>"
p423
sS'IS_UPLOAD_FILENAME'
p424
S"<class 'gluon.validators.IS_UPLOAD_FILENAME'>"
p425
sS'IS_DECIMAL_IN_RANGE'
p426
S"<class 'gluon.validators.IS_DECIMAL_IN_RANGE'>"
p427
sssS'traceback'
p428
S'Traceback (most recent call last):\n  File "/home/marco/trabajo/experimental/web2py/gluon/restricted.py", line 221, in restricted\n    exec ccode in environment\n  File "/home/marco/trabajo/experimental/web2py/applications/distribuidora/views/default/index.html", line 8, in <module>\n    <p>This is <strong>Fetchingly</strong>, a free, fully standards-compliant CSS template designed by <a href="http://templated.co" rel="nofollow">TEMPLATED</a>. The photos in this template are from <a href="http://fotogrph.com/"> Fotogrph</a>. This free template is released under the <a href="http://templated.co/license">Creative Commons Attribution</a> license, so you\'re pretty much free to do whatever you want with it (even use it commercially) provided you give us credit for it. Have fun :) </p>\nNameError: name \'is_mobile\' is not defined\n'
p429
s.