(dp1
S'output'
p2
S"<type 'exceptions.AttributeError'> 'Row' object has no attribute 'slice(None, 100, None)'"
p3
sS'layer'
p4
S'/home/marco/trabajo/experimental/web2py/applications/distribuidora/views/default/empresa.html'
p5
sS'code'
p6
S'response.write(\'<!--[if HTML5]><![endif]-->\\n<!DOCTYPE html>\\n<!-- paulirish.com/2008/conditional-stylesheets-vs-css-hacks-answer-neither/ -->\\n<!--[if lt IE 7]><html class="ie ie6 ie-lte9 ie-lte8 ie-lte7 no-js" lang="\', escape=False)\nresponse.write(T.accepted_language or \'en\')\nresponse.write(\'"> <![endif]-->\\n<!--[if IE 7]><html class="ie ie7 ie-lte9 ie-lte8 ie-lte7 no-js" lang="\', escape=False)\nresponse.write(T.accepted_language or \'en\')\nresponse.write(\'"> <![endif]-->\\n<!--[if IE 8]><html class="ie ie8 ie-lte9 ie-lte8 no-js" lang="\', escape=False)\nresponse.write(T.accepted_language or \'en\')\nresponse.write(\'"> <![endif]-->\\n<!--[if IE 9]><html class="ie9 ie-lte9 no-js" lang="\', escape=False)\nresponse.write(T.accepted_language or \'en\')\nresponse.write(\'"> <![endif]-->\\n<!--[if (gt IE 9)|!(IE)]><!--> <html class="no-js" lang="\', escape=False)\nresponse.write(T.accepted_language or \'en\')\nresponse.write(\'"> <!--<![endif]-->\\n  <head>\\n    <title>P&P Distribuciones Salta - Jujuy</title>\\n    <!--[if !HTML5]>\\n\\t<meta http-equiv="X-UA-Compatible" content="IE=edge\', escape=False)\nresponse.write(not request.is_local and \',chrome=1\' or \'\')\nresponse.write(\'">\\n\\t<![endif]-->\\n    <!-- www.phpied.com/conditional-comments-block-downloads/ -->\\n    <!-- Always force latest IE rendering engine\\n\\t (even in intranet) & Chrome Frame\\n\\t Remove this if you use the .htaccess -->\\n    \\n    <meta charset="utf-8" />\\n\\n    <!-- http://dev.w3.org/html5/markup/meta.name.html -->\\n    <meta name="application-name" content="\', escape=False)\nresponse.write(request.application)\nresponse.write(\'" />\\n\\n    <!-- Speaking of Google, don\\\'t forget to set your site up:\\n\\t http://google.com/webmasters -->\\n    <meta name="google-site-verification" content="" />\\n\\n    <!--  Mobile Viewport Fix\\n          j.mp/mobileviewport & davidbcalhoun.com/2010/viewport-metatag\\n          device-width: Occupy full width of the screen in its current orientation\\n          initial-scale = 1.0 retains dimensions instead of zooming out if page height > device height\\n          user-scalable = yes allows the user to zoom in -->\\n    <meta name="viewport" content="width=device-width, initial-scale=1.0" />\\n\\n    <link rel="shortcut icon" href="\', escape=False)\nresponse.write(URL(\'static\',\'images/favicon.ico\'))\nresponse.write(\'" type="image/x-icon">\\n    <link rel="apple-touch-icon" href="\', escape=False)\nresponse.write(URL(\'static\',\'images/favicon.png\'))\nresponse.write(\'">\\n\\n    <!-- All JavaScript at the bottom, except for Modernizr which enables\\n\\t HTML5 elements & feature detects -->\\n    <script src="\', escape=False)\nresponse.write(URL(\'static\',\'js/modernizr.custom.js\'))\nresponse.write(\'"></script>\\n\\n    <!-- include stylesheets -->\\n\\n    <link href="\', escape=False)\nresponse.write(URL(\'static\',\'css/bootstrap.min.css\'))\nresponse.write(\'" type="text/css" media="screen" rel="stylesheet" />\\n    <link href="\', escape=False)\nresponse.write(URL(\'static\',\'css/web2py.css\'))\nresponse.write(\'" type="text/css" media="screen" rel="stylesheet" />\\n    <link href="\', escape=False)\nresponse.write(URL(\'static\',\'css/fa/css/font-awesome.min.css\'))\nresponse.write(\'" type="text/css" media="screen" rel="stylesheet" />\\n    <link href="\', escape=False)\nresponse.write(URL(\'static\',\'css/xignus.css\'))\nresponse.write(\'" type="text/css" media="screen" rel="stylesheet" />\\n    \\n    \', escape=False)\nresponse.write(\'<script type="text/javascript"><!--\\n    // These variables are used by the web2py_ajax_init function in web2py_ajax.js (which is loaded below).\\n    var w2p_ajax_confirm_message = "\', escape=False)\nresponse.write(T(\'Are you sure you want to delete this object?\'))\nresponse.write(\'";\\n    var w2p_ajax_disable_with_message = "\', escape=False)\nresponse.write(T(\'Working...\'))\nresponse.write(\'";\\n    var w2p_ajax_date_format = "\', escape=False)\nresponse.write(T(\'%Y-%m-%d\'))\nresponse.write(\'";\\n    var w2p_ajax_datetime_format = "\', escape=False)\nresponse.write(T(\'%Y-%m-%d %H:%M:%S\'))\nresponse.write(\'";\\n    var ajax_error_500 = \\\'\', escape=False)\nresponse.write(T.M(\'An error occured, please [[reload %s]] the page\') % URL(args=request.args, vars=request.get_vars))\nresponse.write("\'\\n    //--></script>\\n", escape=False)\nresponse.files.insert(0,URL(\'static\',\'js/jquery.js\'))\nresponse.files.insert(1,URL(\'static\',\'css/calendar.css\'))\nresponse.files.insert(2,URL(\'static\',\'js/calendar.js\'))\nresponse.files.insert(3,URL(\'static\',\'js/web2py.js\'))\nresponse.include_meta()\nresponse.include_files()\nresponse.write(\'\\n\', escape=False)\nresponse.write(\'\\n\\n    \', escape=False)\n# using sidebars need to know what sidebar you want to use\nleft_sidebar_enabled = globals().get(\'left_sidebar_enabled\',False)\nright_sidebar_enabled = globals().get(\'right_sidebar_enabled\',False)\nmiddle_columns = {0:\'span12\',1:\'span9\',2:\'span6\'}[\n(left_sidebar_enabled and 1 or 0)+(right_sidebar_enabled and 1 or 0)]\nresponse.write(\'\\n\\n    <!-- uncomment here to load jquery-ui\\n\\t <link rel="stylesheet" href="http://ajax.googleapis.com/ajax/libs/jqueryui/1.10.3/themes/ui-lightness/jquery-ui.css" type="text/css" media="all" />\\n\\t <script src="http://ajax.googleapis.com/ajax/libs/jqueryui/1.10.3/jquery-ui.min.js" type="text/javascript"></script>\\n\\t uncomment to load jquery-ui //-->\\n    <noscript><link href="\', escape=False)\nresponse.write(URL(\'static\', \'css/web2py_bootstrap_nojs.css\'))\nresponse.write(\'" rel="stylesheet" type="text/css" /></noscript>\\n    \', escape=False)\nresponse.write(\'\\n  </head>\\n\\n  <body>\\n    <div class="container">\\n      <!-- Navbar ================================================== -->\\n      <div class="">\\n\\t<header><!-- encabezado -->\\n\\t  <div class="row">\\n\\t    <div class="col-xs-4">\\n\\t      <img src="\', escape=False)\nresponse.write(URL(\'static\',\'images/logoalco.jpg\'))\nresponse.write(\'" class="logo pull-left no-prod" alt="" />\\n\\t    </div>\\n\\t    <div class="col-xs-4">\\n\\t      <div class="text-center">\\n\\t\\t\', escape=False)\nresponse.write(response.logo or \'\')\nresponse.write(\'\\n\\t      </div>\\n\\t    </div>\\n\\t    <div class="col-xs-4">\\n\\t      <img src="\', escape=False)\nresponse.write(URL(\'static\',\'images/logocanale.png\'))\nresponse.write(\'" class="logo pull-right no-prod" alt="" />\\n\\t    </div>\\n\\t  </div>\\n\\t  \\n\\t  <div class="menu pull-right">\\n\\t    \', escape=False)\nif response.menu:\n    response.write(\'\\n\\t    \', escape=False)\n    response.write(MENU(response.menu, _class="text-center nav nav-pills"))\n    response.write(\'\\n\\t    \', escape=False)\n    pass\nresponse.write(\'\\n\\t  </div>\\n\\t</header> <!-- fin encabezado -->\\n      </div>\\n      \\n      \', escape=False)\nresponse.write(\'\\n\\n<div class="box">\\n  <h2>Nuestra empresa</h2>\\n  \', escape=False)\nfor elemento in empresa:\n    response.write(\'\\n  <p>\', escape=False)\n    response.write(XML(elemento.descripcion_empresa))\n    response.write(\'</p>\\n  \', escape=False)\n    pass\nresponse.write(\'\\n</div>\\n\', escape=False)\nresponse.write(\'\\n    </div> <!-- /container -->\\n\\n    <!--Contact modal form-->\\n    <div class="modal fade" id="MyContact" tabindex="-1" role="dialog" aria-labelledby="MyContactLabel" aria-hidden="true">\\n      <div class="modal-dialog">\\n\\t<div class="modal-content">\\n\\t  <div class="modal-header">\\n            <button type="button" class="close" data-dismiss="modal"><span aria-hidden="true">&times;</span><span class="sr-only">Close</span></button>\\n            <h4 class="modal-title" id="MyContactLabel">Contacto</h4>\\n\\t  </div>\\n\\t  <div class="modal-body">\\n            \', escape=False)\nresponse.write(crud.create(db.contacto))\nresponse.write(\'\\n\\t  </div>\\n\\t</div>\\n      </div>\\n    </div>\\n    \\n    \\n    <!--Contact modal form-->\\n    \\n    <!-- Footer ================================================== -->\\n    <footer class="container"><!-- pie -->\\n      <div class="row">\\n\\t<div class="col-sm-4">\\n\\t  <div class="pie">\\n\\t    <h3><span class="fa fa-group"></span> Nosotros</h3>\\n\\t    \', escape=False)\nfor descripcion in db(db.empresa.id>0).select():\n    response.write(\'\\n\\t    \', escape=False)\n    response.write(XML((descripcion)[:100]))\n    response.write(\'\\n\\t    \', escape=False)\n    pass\nresponse.write(\'\\n\\t  </div>\\n\\t</div>\\n\\n\\t<div class="col-sm-4">\\n\\t  <div class="pie">\\n\\t    <h3><span class="fa fa-cubes"></span> Productos</h3>\\n\\t    <p>Algunos de nuestros productos</p>\\n\\t    <div class="footfood row">\\n\\t      \', escape=False)\nminiproductos=db(db.productos.id>0).select(orderby=\'<random>\', limitby=(0,9))\nresponse.write(\'\\n\\t\\t\', escape=False)\nfor producto in miniproductos:\n    response.write(\'\\n\\t\\t<div class="col-xs-4">\\n\\t\\t  <div class="mini">\\n\\t\\t    <div class="articulo">\\n\\t\\t      <img src="\', escape=False)\n    response.write(URL(\'download\',args=producto.imagen))\n    response.write(\'" class="img-thumbnail" alt="" />\\n\\t\\t    </div>\\n\\t\\t  </div>\\n\\t\\t</div>\\n\\t\\t\', escape=False)\n    pass\nresponse.write(\'\\n\\t    </div>\\n\\t  </div>\\n\\t</div>\\n\\n\\t<div class="col-sm-4">\\n\\t  <div class="pie">\\t      \\n\\t    <h3><span class="fa fa-envelope"></span> Contacto</h3>\\n\\t    <div class="contacto">\\n\\t      <h5><span class="fa fa-globe"></span> Ruta 34, Salta - Jujuy</h5>\\n\\t      <h5><span class="fa fa-phone"></span> (0387)- 5400014</h5>\\n\\t      <p>contacto@pypdistribuciones.com.ar</p>\\n\\t    </div>\\n\\t  </div>\\n\\t</div>\\n      </div>\\n    </footer><!-- fin pie -->\\n    <div class="clearfix"></div>\\n\\n    <!-- The javascript =============================================\\n\\t (Placed at the end of the document so the pages load faster) -->\\n    <script src="\', escape=False)\nresponse.write(URL(\'static\',\'js/bootstrap.min.js\'))\nresponse.write(\'"></script>\\n    <script src="\', escape=False)\nresponse.write(URL(\'static\',\'js/web2py_bootstrap.js\'))\nresponse.write(\'"></script>\\n    <script src="\', escape=False)\nresponse.write(URL(\'static\',\'js/flexslider.js\'))\nresponse.write(\'"></script>\\n    <script src="\', escape=False)\nresponse.write(URL(\'static\',\'js/pyp.js\'))\nresponse.write(\'"></script>\\n    <!--[if lt IE 7 ]>\\n\\t<script src="\', escape=False)\nresponse.write(URL(\'static\',\'js/dd_belatedpng.js\'))\nresponse.write(\'"></script>\\n\\t<script> DD_belatedPNG.fix(\\\'img, .png_bg\\\'); //fix any <img> or .png_bg background-images </script>\\n\\t<![endif]-->      \\n  </body>\\n</html>\\n\\n\', escape=False)'
p7
sS'snapshot'
p8
(dp9
sS'traceback'
p10
S'Traceback (most recent call last):\n  File "/home/marco/trabajo/experimental/web2py/gluon/restricted.py", line 221, in restricted\n    exec ccode in environment\n  File "/home/marco/trabajo/experimental/web2py/applications/distribuidora/views/default/empresa.html", line 82, in <module>\n  File "/home/marco/trabajo/experimental/web2py/gluon/dal.py", line 7474, in __getitem__\n    raise ae\nAttributeError: \'Row\' object has no attribute \'slice(None, 100, None)\'\n'
p11
s.