(dp1
S'output'
p2
S"<type 'exceptions.NameError'> name 'images' is not defined"
p3
sS'layer'
p4
S'/home/marco/trabajo/experimental/web2py/applications/distribuidora/views/default/index.html'
p5
sS'code'
p6
S'left_sidebar_enabled,right_sidebar_enabled=False,(\'message\' in globals())\nresponse.write(\'\\n\', escape=False)\nresponse.write(\'<!DOCTYPE html>\\r\\n<html lang="en">\\r\\n\\t<head>\\r\\n\\t\\t<title>About</title>\\r\\n\\t\\t<meta charset="utf-8">\\r\\n\\t\\t<meta name="format-detection" content="telephone=no" />\\r\\n\\t\\t<link rel="icon" href="\', escape=False)\nresponse.write(URL(images/favicon.ico))\nresponse.write(\'">\\r\\n\\t\\t<link rel="shortcut icon" href="images/favicon.ico" />\\r\\n\\t\\t<link rel="stylesheet" href="booking/css/booking.css">\\r\\n\\t\\t<link rel="stylesheet" href="css/camera.css">\\r\\n\\t\\t<link rel="stylesheet" href="css/owl.carousel.css">\\r\\n\\t\\t<link rel="stylesheet" href="css/style.css">\\r\\n\\t\\t<script src="js/jquery.js"></script>\\r\\n\\t\\t<script src="js/jquery-migrate-1.2.1.js"></script>\\r\\n\\t\\t<script src="js/script.js"></script>\\r\\n\\t\\t<script src="js/superfish.js"></script>\\r\\n\\t\\t<script src="js/jquery.ui.totop.js"></script>\\r\\n\\t\\t<script src="js/jquery.equalheights.js"></script>\\r\\n\\t\\t<script src="js/jquery.mobilemenu.js"></script>\\r\\n\\t\\t<script src="js/jquery.easing.1.3.js"></script>\\r\\n\\t\\t<script src="js/owl.carousel.js"></script>\\r\\n\\t\\t<script src="js/camera.js"></script>\\r\\n\\t\\t<!--[if (gt IE 9)|!(IE)]><!-->\\r\\n\\t\\t<script src="js/jquery.mobile.customized.min.js"></script>\\r\\n\\t\\t<!--<![endif]-->\\r\\n\\t\\t<script src="booking/js/booking.js"></script>\\r\\n\\t\\t<script>\\r\\n\\t\\t\\t$(document).ready(function(){\\r\\n\\t\\t\\tjQuery(\\\'#camera_wrap\\\').camera({\\r\\n\\t\\t\\t\\tloader: false,\\r\\n\\t\\t\\t\\tpagination: false ,\\r\\n\\t\\t\\t\\tminHeight: \\\'444\\\',\\r\\n\\t\\t\\t\\tthumbnails: false,\\r\\n\\t\\t\\t\\theight: \\\'48.375%\\\',\\r\\n\\t\\t\\t\\tcaption: true,\\r\\n\\t\\t\\t\\tnavigation: true,\\r\\n\\t\\t\\t\\tfx: \\\'mosaic\\\'\\r\\n\\t\\t\\t});\\r\\n\\t\\t\\t/*carousel*/\\r\\n\\t\\t\\tvar owl=$("#owl");\\r\\n\\t\\t\\t\\towl.owlCarousel({\\r\\n\\t\\t\\t\\titems : 2, //10 items above 1000px browser width\\r\\n\\t\\t\\t\\titemsDesktop : [995,2], //5 items between 1000px and 901px\\r\\n\\t\\t\\t\\titemsDesktopSmall : [767, 2], // betweem 900px and 601px\\r\\n\\t\\t\\t\\titemsTablet: [700, 2], //2 items between 600 and 0\\r\\n\\t\\t\\t\\titemsMobile : [479, 1], // itemsMobile disabled - inherit from itemsTablet option\\r\\n\\t\\t\\t\\tnavigation : true,\\r\\n\\t\\t\\t\\tpagination : false\\r\\n\\t\\t\\t\\t});\\r\\n\\t\\t\\t$().UItoTop({ easingType: \\\'easeOutQuart\\\' });\\r\\n\\t\\t\\t});\\r\\n\\t\\t</script>\\r\\n\\t\\t<!--[if lt IE 8]>\\r\\n\\t\\t<div style=\\\' clear: both; text-align:center; position: relative;\\\'>\\r\\n\\t\\t\\t<a href="http://windows.microsoft.com/en-US/internet-explorer/products/ie/home?ocid=ie6_countdown_bannercode">\\r\\n\\t\\t\\t\\t<img src="http://storage.ie6countdown.com/assets/100/images/banners/warning_bar_0000_us.jpg" border="0" height="42" width="820" alt="You are using an outdated browser. For a faster, safer browsing experience, upgrade for free today." />\\r\\n\\t\\t\\t</a>\\r\\n\\t\\t</div>\\r\\n\\t\\t<![endif]-->\\r\\n\\t\\t<!--[if lt IE 9]>\\r\\n\\t\\t<script src="js/html5shiv.js"></script>\\r\\n\\t\\t<link rel="stylesheet" media="screen" href="css/ie.css">\\r\\n\\t\\t<![endif]-->\\r\\n\\t</head>\\r\\n\\t<body class="page1" id="top">\\r\\n<!--==============================header=================================-->\\r\\n\\t\\t<header>\\r\\n\\t\\t\\t<div class="container_12">\\r\\n\\t\\t\\t\\t<div class="grid_12">\\r\\n\\t\\t\\t\\t\\t<div class="menu_block">\\r\\n\\t\\t\\t\\t\\t\\t<nav class="horizontal-nav full-width horizontalNav-notprocessed">\\r\\n\\t\\t\\t\\t\\t\\t\\t<ul class="sf-menu">\\r\\n\\t\\t\\t\\t\\t\\t\\t\\t<li class="current"><a href="index.html">ABOUT</a></li>\\r\\n\\t\\t\\t\\t\\t\\t\\t\\t<li><a href="index-1.html">HOT TOURS</a></li>\\r\\n\\t\\t\\t\\t\\t\\t\\t\\t<li><a href="index-2.html">SPECIAL OFFERS</a></li>\\r\\n\\t\\t\\t\\t\\t\\t\\t\\t<li><a href="index-3.html">BLOG</a></li>\\r\\n\\t\\t\\t\\t\\t\\t\\t\\t<li><a href="index-4.html">CONTACTS</a></li>\\r\\n\\t\\t\\t\\t\\t\\t\\t</ul>\\r\\n\\t\\t\\t\\t\\t\\t</nav>\\r\\n\\t\\t\\t\\t\\t\\t<div class="clear"></div>\\r\\n\\t\\t\\t\\t\\t</div>\\r\\n\\t\\t\\t\\t</div>\\r\\n\\t\\t\\t\\t<div class="grid_12">\\r\\n\\t\\t\\t\\t\\t<h1>\\r\\n\\t\\t\\t\\t\\t\\t<a href="index.html">\\r\\n\\t\\t\\t\\t\\t\\t\\t<img src="images/logo.png" alt="Your Happy Family">\\r\\n\\t\\t\\t\\t\\t\\t</a>\\r\\n\\t\\t\\t\\t\\t</h1>\\r\\n\\t\\t\\t\\t</div>\\r\\n\\t\\t\\t</div>\\r\\n\\t\\t</header>\\r\\n\\t\\t<div class="slider_wrapper">\\r\\n\\t\\t\\t<div id="camera_wrap" class="">\\r\\n\\t\\t\\t\\t<div data-src="images/slide.jpg">\\r\\n\\t\\t\\t\\t\\t<div class="caption fadeIn">\\r\\n\\t\\t\\t\\t\\t\\t<h2>LONDON</h2>\\r\\n\\t\\t\\t\\t\\t\\t<div class="price">\\r\\n\\t\\t\\t\\t\\t\\t\\tFROM\\r\\n\\t\\t\\t\\t\\t\\t\\t<span>&#163;1000</span>\\r\\n\\t\\t\\t\\t\\t\\t</div>\\r\\n\\t\\t\\t\\t\\t\\t<a href="#">LEARN MORE</a>\\r\\n\\t\\t\\t\\t\\t</div>\\r\\n\\t\\t\\t\\t</div>\\r\\n\\t\\t\\t\\t<div data-src="images/slide1.jpg">\\r\\n\\t\\t\\t\\t\\t<div class="caption fadeIn">\\r\\n\\t\\t\\t\\t\\t\\t<h2>Maldives</h2>\\r\\n\\t\\t\\t\\t\\t\\t<div class="price">\\r\\n\\t\\t\\t\\t\\t\\t\\tFROM\\r\\n\\t\\t\\t\\t\\t\\t\\t<span>&#163;2000</span>\\r\\n\\t\\t\\t\\t\\t\\t</div>\\r\\n\\t\\t\\t\\t\\t\\t<a href="#">LEARN MORE</a>\\r\\n\\t\\t\\t\\t\\t</div>\\r\\n\\t\\t\\t\\t</div>\\r\\n\\t\\t\\t\\t<div data-src="images/slide2.jpg">\\r\\n\\t\\t\\t\\t\\t<div class="caption fadeIn">\\r\\n\\t\\t\\t\\t\\t\\t<h2>Venice</h2>\\r\\n\\t\\t\\t\\t\\t\\t<div class="price">\\r\\n\\t\\t\\t\\t\\t\\t\\tFROM\\r\\n\\t\\t\\t\\t\\t\\t\\t<span>&#163;1600</span>\\r\\n\\t\\t\\t\\t\\t\\t</div>\\r\\n\\t\\t\\t\\t\\t\\t<a href="#">LEARN MORE</a>\\r\\n\\t\\t\\t\\t\\t</div>\\r\\n\\t\\t\\t\\t</div>\\r\\n\\t\\t\\t</div>\\r\\n\\t\\t</div>\\r\\n<!--==============================Content=================================-->\\r\\n\\t\\t<div class="content">\\r\\n\\t\\t\\t<div class="container_12">\\r\\n\\t\\t\\t\\t<div class="grid_4">\\r\\n\\t\\t\\t\\t\\t<div class="banner">\\r\\n\\t\\t\\t\\t\\t\\t<img src="images/ban_img1.jpg" alt="">\\r\\n\\t\\t\\t\\t\\t\\t<div class="label">\\r\\n\\t\\t\\t\\t\\t\\t\\t<div class="title">Barcelona</div>\\r\\n\\t\\t\\t\\t\\t\\t\\t<div class="price">FROM<span>&#163; 1000</span></div>\\r\\n\\t\\t\\t\\t\\t\\t\\t<a href="#">LEARN MORE</a>\\r\\n\\t\\t\\t\\t\\t\\t</div>\\r\\n\\t\\t\\t\\t\\t</div>\\r\\n\\t\\t\\t\\t</div>\\r\\n\\t\\t\\t\\t<div class="grid_4">\\r\\n\\t\\t\\t\\t\\t<div class="banner">\\r\\n\\t\\t\\t\\t\\t\\t<img src="images/ban_img2.jpg" alt="">\\r\\n\\t\\t\\t\\t\\t\\t<div class="label">\\r\\n\\t\\t\\t\\t\\t\\t\\t<div class="title">GOA</div>\\r\\n\\t\\t\\t\\t\\t\\t\\t<div class="price">FROM<span>&#163; 1.500</span></div>\\r\\n\\t\\t\\t\\t\\t\\t\\t<a href="#">LEARN MORE</a>\\r\\n\\t\\t\\t\\t\\t\\t</div>\\r\\n\\t\\t\\t\\t\\t</div>\\r\\n\\t\\t\\t\\t</div>\\r\\n\\t\\t\\t\\t<div class="grid_4">\\r\\n\\t\\t\\t\\t\\t<div class="banner">\\r\\n\\t\\t\\t\\t\\t\\t<img src="images/ban_img3.jpg" alt="">\\r\\n\\t\\t\\t\\t\\t\\t<div class="label">\\r\\n\\t\\t\\t\\t\\t\\t\\t<div class="title">PARIS</div>\\r\\n\\t\\t\\t\\t\\t\\t\\t<div class="price">FROM<span>&#163; 1.600</span></div>\\r\\n\\t\\t\\t\\t\\t\\t\\t<a href="#">LEARN MORE</a>\\r\\n\\t\\t\\t\\t\\t\\t</div>\\r\\n\\t\\t\\t\\t\\t</div>\\r\\n\\t\\t\\t\\t</div>\\r\\n\\t\\t\\t\\t<div class="clear"></div>\\r\\n\\t\\t\\t\\t<div class="grid_6">\\r\\n\\t\\t\\t\\t\\t<h3>Booking Form</h3>\\r\\n\\t\\t\\t\\t\\t<form id="bookingForm">\\r\\n\\t\\t\\t\\t\\t\\t<div class="fl1">\\r\\n\\t\\t\\t\\t\\t\\t\\t<div class="tmInput">\\r\\n\\t\\t\\t\\t\\t\\t\\t\\t<input name="Name" placeHolder="Name:" type="text" data-constraints=\\\'@NotEmpty @Required @AlphaSpecial\\\'>\\r\\n\\t\\t\\t\\t\\t\\t\\t</div>\\r\\n\\t\\t\\t\\t\\t\\t\\t<div class="tmInput">\\r\\n\\t\\t\\t\\t\\t\\t\\t\\t<input name="Country" placeHolder="Country:" type="text" data-constraints="@NotEmpty @Required">\\r\\n\\t\\t\\t\\t\\t\\t\\t</div>\\r\\n\\t\\t\\t\\t\\t\\t</div>\\r\\n\\t\\t\\t\\t\\t\\t<div class="fl1">\\r\\n\\t\\t\\t\\t\\t\\t\\t<div class="tmInput">\\r\\n\\t\\t\\t\\t\\t\\t\\t\\t<input name="Email" placeHolder="Email:" type="text" data-constraints="@NotEmpty @Required @Email">\\r\\n\\t\\t\\t\\t\\t\\t\\t</div>\\r\\n\\t\\t\\t\\t\\t\\t\\t<div class="tmInput mr0">\\r\\n\\t\\t\\t\\t\\t\\t\\t\\t<input name="Hotel" placeHolder="Hotel:" type="text" data-constraints="@NotEmpty @Required">\\r\\n\\t\\t\\t\\t\\t\\t\\t</div>\\r\\n\\t\\t\\t\\t\\t\\t</div>\\r\\n\\t\\t\\t\\t\\t\\t<div class="clear"></div>\\r\\n\\t\\t\\t\\t\\t\\t<strong>Check-in</strong>\\r\\n\\t\\t\\t\\t\\t\\t<label class="tmDatepicker">\\r\\n\\t\\t\\t\\t\\t\\t\\t<input type="text" name="Check-in" placeHolder=\\\'10/05/2014\\\' data-constraints="@NotEmpty @Required @Date">\\r\\n\\t\\t\\t\\t\\t\\t</label>\\r\\n\\t\\t\\t\\t\\t\\t<div class="clear"></div>\\r\\n\\t\\t\\t\\t\\t\\t<strong>Check-out</strong>\\r\\n\\t\\t\\t\\t\\t\\t<label class="tmDatepicker">\\r\\n\\t\\t\\t\\t\\t\\t\\t<input type="text" name="Check-out" placeHolder=\\\'20/05/2014\\\' data-constraints="@NotEmpty @Required @Date">\\r\\n\\t\\t\\t\\t\\t\\t</label>\\r\\n\\t\\t\\t\\t\\t\\t<div class="clear"></div>\\r\\n\\t\\t\\t\\t\\t\\t<div class="tmRadio">\\r\\n\\t\\t\\t\\t\\t\\t\\t<p>Comfort</p>\\r\\n\\t\\t\\t\\t\\t\\t\\t<input name="Comfort" type="radio" id="tmRadio0" data-constraints=\\\'@RadioGroupChecked(name="Comfort", groups=[RadioGroup])\\\' checked/>\\r\\n\\t\\t\\t\\t\\t\\t\\t<span>Cheap</span>\\r\\n\\t\\t\\t\\t\\t\\t\\t<input name="Comfort" type="radio" id="tmRadio1" data-constraints=\\\'@RadioGroupChecked(name="Comfort", groups=[RadioGroup])\\\' />\\r\\n\\t\\t\\t\\t\\t\\t\\t<span>Standart</span>\\r\\n\\t\\t\\t\\t\\t\\t\\t<input name="Comfort" type="radio" id="tmRadio2" data-constraints=\\\'@RadioGroupChecked(name="Comfort", groups=[RadioGroup])\\\' />\\r\\n\\t\\t\\t\\t\\t\\t\\t<span>Lux</span>\\r\\n\\t\\t\\t\\t\\t\\t</div>\\r\\n\\t\\t\\t\\t\\t\\t<div class="clear"></div>\\r\\n\\t\\t\\t\\t\\t\\t<div class="fl1 fl2">\\r\\n\\t\\t\\t\\t\\t\\t\\t<em>Adults</em>\\r\\n\\t\\t\\t\\t\\t\\t\\t<select name="Adults" class="tmSelect auto" data-class="tmSelect tmSelect2" data-constraints="">\\r\\n\\t\\t\\t\\t\\t\\t\\t\\t<option>1</option>\\r\\n\\t\\t\\t\\t\\t\\t\\t\\t<option>1</option>\\r\\n\\t\\t\\t\\t\\t\\t\\t\\t<option>2</option>\\r\\n\\t\\t\\t\\t\\t\\t\\t\\t<option>3</option>\\r\\n\\t\\t\\t\\t\\t\\t\\t</select>\\r\\n\\t\\t\\t\\t\\t\\t\\t<div class="clear"></div>\\r\\n\\t\\t\\t\\t\\t\\t\\t<em>Rooms</em>\\r\\n\\t\\t\\t\\t\\t\\t\\t<select name="Rooms" class="tmSelect auto" data-class="tmSelect tmSelect2" data-constraints="">\\r\\n\\t\\t\\t\\t\\t\\t\\t\\t<option>1</option>\\r\\n\\t\\t\\t\\t\\t\\t\\t\\t<option>1</option>\\r\\n\\t\\t\\t\\t\\t\\t\\t\\t<option>2</option>\\r\\n\\t\\t\\t\\t\\t\\t\\t\\t<option>3</option>\\r\\n\\t\\t\\t\\t\\t\\t\\t</select>\\r\\n\\t\\t\\t\\t\\t\\t</div>\\r\\n\\t\\t\\t\\t\\t\\t<div class="fl1 fl2">\\r\\n\\t\\t\\t\\t\\t\\t\\t<em>Children</em>\\r\\n\\t\\t\\t\\t\\t\\t\\t<select name="Children" class="tmSelect auto" data-class="tmSelect tmSelect2" data-constraints="">\\r\\n\\t\\t\\t\\t\\t\\t\\t\\t<option>0</option>\\r\\n\\t\\t\\t\\t\\t\\t\\t\\t<option>0</option>\\r\\n\\t\\t\\t\\t\\t\\t\\t\\t<option>1</option>\\r\\n\\t\\t\\t\\t\\t\\t\\t\\t<option>2</option>\\r\\n\\t\\t\\t\\t\\t\\t\\t</select>\\r\\n\\t\\t\\t\\t\\t\\t</div>\\r\\n\\t\\t\\t\\t\\t\\t<div class="clear"></div>\\r\\n\\t\\t\\t\\t\\t\\t<div class="tmTextarea">\\r\\n\\t\\t\\t\\t\\t\\t\\t<textarea name="Message" placeHolder="Message" data-constraints=\\\'@NotEmpty @Required @Length(min=20,max=999999)\\\'></textarea>\\r\\n\\t\\t\\t\\t\\t\\t</div>\\r\\n\\t\\t\\t\\t\\t\\t<a href="#" class="btn" data-type="submit">Submit</a>\\r\\n\\t\\t\\t\\t\\t</form>\\r\\n\\t\\t\\t\\t</div>\\r\\n\\t\\t\\t\\t<div class="grid_5 prefix_1">\\r\\n\\t\\t\\t\\t\\t<h3>Welcome</h3>\\r\\n\\t\\t\\t\\t\\t<img src="images/page1_img1.jpg" alt="" class="img_inner fleft">\\r\\n\\t\\t\\t\\t\\t<div class="extra_wrapper">\\r\\n\\t\\t\\t\\t\\t\\t<p>Lorem ipsum dolor sit ere amet, consectetur ipiscin.</p>\\r\\n\\t\\t\\t\\t\\t\\tIn mollis erat mattis neque facilisis, sit ametiol\\r\\n\\t\\t\\t\\t\\t</div>\\r\\n\\t\\t\\t\\t\\t<div class="clear cl1"></div>\\r\\n\\t\\t\\t\\t\\t<p>Find the detailed description of this <span class="col1"><a href="http://blog.templatemonster.com/free-website-templates/?aff=awdawd" rel="dofollow">freebie</a></span> at TemplateMonster blog.</p>\\r\\n\\t\\t\\t\\t\\t<p><span class="col1"><a href="http://store.templatemonster.com/?aff=awdawd" rel="nofollow">Travel Website Templates</a></span> category offers you a variety of designs that are perfect for travel sphere of business.</p>\\r\\n\\t\\t\\t\\t\\tProin pharetra luctus diam, a scelerisque eros convallis\\r\\n\\t\\t\\t\\t\\t<h4>Clients\\xe2\\x80\\x99 Quotes</h4>\\r\\n\\t\\t\\t\\t\\t<blockquote class="bq1">\\r\\n\\t\\t\\t\\t\\t\\t<img src="images/page1_img2.jpg" alt="" class="img_inner noresize fleft">\\r\\n\\t\\t\\t\\t\\t\\t<div class="extra_wrapper">\\r\\n\\t\\t\\t\\t\\t\\t\\t<p>Duis massa elit, auctor non pellentesque vel, aliquet sit amet erat. Nullam eget dignissim nisi, aliquam feugiat nibh. </p>\\r\\n\\t\\t\\t\\t\\t\\t\\t<div class="alright">\\r\\n\\t\\t\\t\\t\\t\\t\\t\\t<div class="col1">Miranda Brown</div>\\r\\n\\t\\t\\t\\t\\t\\t\\t\\t<a href="#" class="btn">More</a>\\r\\n\\t\\t\\t\\t\\t\\t\\t</div>\\r\\n\\t\\t\\t\\t\\t\\t</div>\\r\\n\\t\\t\\t\\t\\t</blockquote>\\r\\n\\t\\t\\t\\t</div>\\r\\n\\t\\t\\t\\t<div class="grid_12">\\r\\n\\t\\t\\t\\t\\t<h3 class="head1">Latest News</h3>\\r\\n\\t\\t\\t\\t</div>\\r\\n\\t\\t\\t\\t<div class="grid_4">\\r\\n\\t\\t\\t\\t\\t<div class="block1">\\r\\n\\t\\t\\t\\t\\t\\t<time datetime="2014-01-01">10<span>Jan</span></time>\\r\\n\\t\\t\\t\\t\\t\\t<div class="extra_wrapper">\\r\\n\\t\\t\\t\\t\\t\\t\\t<div class="text1 col1"><a href="#">Aliquam nibh</a></div>\\r\\n\\t\\t\\t\\t\\t\\t\\tProin pharetra luctus diam, any scelerisque eros convallisumsan. Maecenas vehicula egestas\\r\\n\\t\\t\\t\\t\\t\\t</div>\\r\\n\\t\\t\\t\\t\\t</div>\\r\\n\\t\\t\\t\\t</div>\\r\\n\\t\\t\\t\\t<div class="grid_4">\\r\\n\\t\\t\\t\\t\\t<div class="block1">\\r\\n\\t\\t\\t\\t\\t\\t<time datetime="2014-01-01">21<span>Jan</span></time>\\r\\n\\t\\t\\t\\t\\t\\t<div class="extra_wrapper">\\r\\n\\t\\t\\t\\t\\t\\t\\t<div class="text1 col1"><a href="#">Etiam dui eros</a></div>\\r\\n\\t\\t\\t\\t\\t\\t\\tAny scelerisque eros vallisumsan. Maecenas vehicula egestas natis. Duis massa elit, auctor non\\r\\n\\t\\t\\t\\t\\t\\t</div>\\r\\n\\t\\t\\t\\t\\t</div>\\r\\n\\t\\t\\t\\t</div>\\r\\n\\t\\t\\t\\t<div class="grid_4">\\r\\n\\t\\t\\t\\t\\t<div class="block1">\\r\\n\\t\\t\\t\\t\\t\\t<time datetime="2014-01-01">15<span>Feb</span></time>\\r\\n\\t\\t\\t\\t\\t\\t<div class="extra_wrapper">\\r\\n\\t\\t\\t\\t\\t\\t\\t<div class="text1 col1"><a href="#">uamnibh Edeto</a></div>\\r\\n\\t\\t\\t\\t\\t\\t\\tRos convallisumsan. Maecenas vehicula egestas venenatis. Duis massa elit, auctor non\\r\\n\\t\\t\\t\\t\\t\\t</div>\\r\\n\\t\\t\\t\\t\\t</div>\\r\\n\\t\\t\\t\\t</div>\\r\\n\\t\\t\\t</div>\\r\\n\\t\\t</div>\\r\\n<!--==============================footer=================================-->\\r\\n\\t\\t<footer>\\r\\n\\t\\t\\t<div class="container_12">\\r\\n\\t\\t\\t\\t<div class="grid_12">\\r\\n\\t\\t\\t\\t\\t<div class="socials">\\r\\n\\t\\t\\t\\t\\t\\t<a href="#" class="fa fa-facebook"></a>\\r\\n\\t\\t\\t\\t\\t\\t<a href="https://twitter.com/oswt" class="fa fa-twitter"></a>\\r\\n\\t\\t\\t\\t\\t\\t<a href="#" class="fa fa-google-plus"></a>\\r\\n\\t\\t\\t\\t\\t</div>\\r\\n\\t\\t\\t\\t\\t\\t<div class="copy">\\r\\nYour Trip (c) 2014 | <a href="index-5.html">Privacy Policy</a><br>\\r\\nWebsite Template Designed by <a href="http://store.templatemonster.com/?aff=awdawd" rel="nofollow">TemplateMonster.com</a> \\r\\nSelection of <a href="http://www.oswt.co.uk/" rel="nofollow">free web templates</a>.\\r\\n\\t\\t\\t\\t\\t</div>\\r\\n\\t\\t\\t\\t</div>\\r\\n\\t\\t\\t</div>\\r\\n\\t\\t</footer>\\r\\n\\t\\t<script>\\r\\n\\t\\t\\t$(function (){\\r\\n\\t\\t\\t\\t$(\\\'#bookingForm\\\').bookingForm({\\r\\n\\t\\t\\t\\t\\townerEmail: \\\'#\\\'\\r\\n\\t\\t\\t\\t});\\r\\n\\t\\t\\t})\\r\\n\\t\\t\\t$(function() {\\r\\n\\t\\t\\t\\t$(\\\'#bookingForm input, #bookingForm textarea\\\').placeholder();\\r\\n\\t\\t\\t});\\r\\n\\t\\t</script>\\r\\n\\t</body>\\r\\n</html>\\r\\n\\r\\n\', escape=False)'
p7
sS'snapshot'
p8
(dp9
S'exception'
p10
(dp11
S'__hash__'
p12
S"<method-wrapper '__hash__' of exceptions.NameError object>"
p13
sS'__setattr__'
p14
S"<method-wrapper '__setattr__' of exceptions.NameError object>"
p15
sS'__reduce_ex__'
p16
S'<built-in method __reduce_ex__ of exceptions.NameError object>'
p17
sS'__getslice__'
p18
S"<method-wrapper '__getslice__' of exceptions.NameError object>"
p19
sS'__getitem__'
p20
S"<method-wrapper '__getitem__' of exceptions.NameError object>"
p21
sS'__setstate__'
p22
S'<built-in method __setstate__ of exceptions.NameError object>'
p23
sS'args'
p24
S'("name \'images\' is not defined",)'
p25
sS'__reduce__'
p26
S'<built-in method __reduce__ of exceptions.NameError object>'
p27
sS'__str__'
p28
S"<method-wrapper '__str__' of exceptions.NameError object>"
p29
sS'__format__'
p30
S'<built-in method __format__ of exceptions.NameError object>'
p31
sS'__getattribute__'
p32
S"<method-wrapper '__getattribute__' of exceptions.NameError object>"
p33
sS'__class__'
p34
S"<type 'exceptions.NameError'>"
p35
sS'__unicode__'
p36
S'<built-in method __unicode__ of exceptions.NameError object>'
p37
sS'__delattr__'
p38
S"<method-wrapper '__delattr__' of exceptions.NameError object>"
p39
sS'__subclasshook__'
p40
S'<built-in method __subclasshook__ of type object>'
p41
sS'__repr__'
p42
S"<method-wrapper '__repr__' of exceptions.NameError object>"
p43
sS'__dict__'
p44
S'{}'
p45
sS'__sizeof__'
p46
S'<built-in method __sizeof__ of exceptions.NameError object>'
p47
sS'__doc__'
p48
S"'Name not found globally.'"
p49
sS'__init__'
p50
S"<method-wrapper '__init__' of exceptions.NameError object>"
p51
sS'__new__'
p52
S'<built-in method __new__ of type object>'
p53
ssS'evalue'
p54
S"name 'images' is not defined"
p55
sS'request'
p56
cgluon.html
XML_unpickle
p57
(S's\xaeN\x00\x00<div><table><tr><td style="font-weight:bold;vertical-align:top;">ajax</td><td style="vertical-align:top;">:</td><td><div>False</div></td></tr><tr><td style="font-weight:bold;vertical-align:top;">application</td><td style="vertical-align:top;">:</td><td><div>distribuidora</div></td></tr><tr><td style="font-weight:bold;vertical-align:top;">args</td><td style="vertical-align:top;">:</td><td><div><table></table></div></td></tr><tr><td style="font-weight:bold;vertical-align:top;">cid</td><td style="vertical-align:top;">:</td><td><div>None</div></td></tr><tr><td style="font-weight:bold;vertical-align:top;">client</td><td style="vertical-align:top;">:</td><td><div>127.0.0.1</div></td></tr><tr><td style="font-weight:bold;vertical-align:top;">controller</td><td style="vertical-align:top;">:</td><td><div>default</div></td></tr><tr><td style="font-weight:bold;vertical-align:top;">cookies</td><td style="vertical-align:top;">:</td><td><div><table><tr><td style="font-weight:bold;vertical-align:top;">session_id_distribuidora</td><td style="vertical-align:top;">:</td><td><div>127.0.0.1-76c6f537-22dd-4e54-a449-0f450ee4875d<table><tr><td style="font-weight:bold;vertical-align:top;">comment</td><td style="vertical-align:top;">:</td><td><div></div></td></tr><tr><td style="font-weight:bold;vertical-align:top;">domain</td><td style="vertical-align:top;">:</td><td><div></div></td></tr><tr><td style="font-weight:bold;vertical-align:top;">expires</td><td style="vertical-align:top;">:</td><td><div></div></td></tr><tr><td style="font-weight:bold;vertical-align:top;">httponly</td><td style="vertical-align:top;">:</td><td><div></div></td></tr><tr><td style="font-weight:bold;vertical-align:top;">max-age</td><td style="vertical-align:top;">:</td><td><div></div></td></tr><tr><td style="font-weight:bold;vertical-align:top;">path</td><td style="vertical-align:top;">:</td><td><div></div></td></tr><tr><td style="font-weight:bold;vertical-align:top;">secure</td><td style="vertical-align:top;">:</td><td><div></div></td></tr><tr><td style="font-weight:bold;vertical-align:top;">version</td><td style="vertical-align:top;">:</td><td><div></div></td></tr></table></div></td></tr></table></div></td></tr><tr><td style="font-weight:bold;vertical-align:top;">env</td><td style="vertical-align:top;">:</td><td><div><table><tr><td style="font-weight:bold;vertical-align:top;">HTTP_ACCEPT</td><td style="vertical-align:top;">:</td><td><div>text/html,application/xhtml+xml,application/xml;q=0.9,*/*;q=0.8</div></td></tr><tr><td style="font-weight:bold;vertical-align:top;">HTTP_ACCEPT_ENCODING</td><td style="vertical-align:top;">:</td><td><div>gzip, deflate</div></td></tr><tr><td style="font-weight:bold;vertical-align:top;">HTTP_ACCEPT_LANGUAGE</td><td style="vertical-align:top;">:</td><td><div>en-US,en;q=0.5</div></td></tr><tr><td style="font-weight:bold;vertical-align:top;">HTTP_CACHE_CONTROL</td><td style="vertical-align:top;">:</td><td><div>max-age=0</div></td></tr><tr><td style="font-weight:bold;vertical-align:top;">HTTP_CONNECTION</td><td style="vertical-align:top;">:</td><td><div>keep-alive</div></td></tr><tr><td style="font-weight:bold;vertical-align:top;">HTTP_COOKIE</td><td style="vertical-align:top;">:</td><td><div>session_id_distribuidora=127.0.0.1-76c6f537-22dd-4e54-a449-0f450ee4875d</div></td></tr><tr><td style="font-weight:bold;vertical-align:top;">HTTP_HOST</td><td style="vertical-align:top;">:</td><td><div>127.0.0.1:8000</div></td></tr><tr><td style="font-weight:bold;vertical-align:top;">HTTP_USER_AGENT</td><td style="vertical-align:top;">:</td><td><div>Mozilla/5.0 (X11; Linux x86_64; rv:31.0) Gecko/20100101 Firefox/31.0 Iceweasel/31.0</div></td></tr><tr><td style="font-weight:bold;vertical-align:top;">PATH_INFO</td><td style="vertical-align:top;">:</td><td><div>/distribuidora</div></td></tr><tr><td style="font-weight:bold;vertical-align:top;">QUERY_STRING</td><td style="vertical-align:top;">:</td><td><div></div></td></tr><tr><td style="font-weight:bold;vertical-align:top;">REMOTE_ADDR</td><td style="vertical-align:top;">:</td><td><div>127.0.0.1</div></td></tr><tr><td style="font-weight:bold;vertical-align:top;">REMOTE_PORT</td><td style="vertical-align:top;">:</td><td><div>54650</div></td></tr><tr><td style="font-weight:bold;vertical-align:top;">REQUEST_METHOD</td><td style="vertical-align:top;">:</td><td><div>GET</div></td></tr><tr><td style="font-weight:bold;vertical-align:top;">SCRIPT_NAME</td><td style="vertical-align:top;">:</td><td><div></div></td></tr><tr><td style="font-weight:bold;vertical-align:top;">SERVER_NAME</td><td style="vertical-align:top;">:</td><td><div>malena</div></td></tr><tr><td style="font-weight:bold;vertical-align:top;">SERVER_PORT</td><td style="vertical-align:top;">:</td><td><div>8000</div></td></tr><tr><td style="font-weight:bold;vertical-align:top;">SERVER_PROTOCOL</td><td style="vertical-align:top;">:</td><td><div>HTTP/1.1</div></td></tr><tr><td style="font-weight:bold;vertical-align:top;">SERVER_SOFTWARE</td><td style="vertical-align:top;">:</td><td><div>Rocket 1.2.6</div></td></tr><tr><td style="font-weight:bold;vertical-align:top;">app_folders</td><td style="vertical-align:top;">:</td><td><div>set([&#x27;/home/marco/trabajo/experimental/web2py/applications/distribuidora/&#x27;])</div></td></tr><tr><td style="font-weight:bold;vertical-align:top;">applications_parent</td><td style="vertical-align:top;">:</td><td><div>/home/marco/trabajo/experimental/web2py</div></td></tr><tr><td style="font-weight:bold;vertical-align:top;">cmd_args</td><td style="vertical-align:top;">:</td><td><div><table></table></div></td></tr><tr><td style="font-weight:bold;vertical-align:top;">cmd_options</td><td style="vertical-align:top;">:</td><td><div>&lt;Values at 0x7fb8056c1b48: {&#x27;verbose&#x27;: False, &#x27;ip&#x27;: &#x27;127.0.0.1&#x27;, &#x27;debuglevel&#x27;: 30, &#x27;with_scheduler&#x27;: False, &#x27;ips&#x27;: [&#x27;127.0.1.1&#x27;], &#x27;shutdown_timeout&#x27;: 5, &#x27;taskbar&#x27;: False, &#x27;with_coverage&#x27;: False, &#x27;scheduler_groups&#x27;: None, &#x27;port&#x27;: 8000, &#x27;maxthreads&#x27;: None, &#x27;softcron&#x27;: False, &#x27;server_name&#x27;: &#x27;malena&#x27;, &#x27;bpython&#x27;: False, &#x27;nogui&#x27;: False, &#x27;pid_filename&#x27;: &#x27;httpserver.pid&#x27;, &#x27;extcron&#x27;: False, &#x27;runcron&#x27;: False, &#x27;run_system_tests&#x27;: False, &#x27;test&#x27;: None, &#x27;folder&#x27;: &#x27;/home/marco/trabajo/experimental/web2py&#x27;, &#x27;config&#x27;: &#x27;&#x27;, &#x27;minthreads&#x27;: None, &#x27;shell&#x27;: None, &#x27;run&#x27;: &#x27;&#x27;, &#x27;log_filename&#x27;: &#x27;httpserver.log&#x27;, &#x27;profiler_dir&#x27;: None, &#x27;args&#x27;: [&#x27;&#x27;], &#x27;socket_timeout&#x27;: 5, &#x27;ssl_ca_certificate&#x27;: None, &#x27;scheduler&#x27;: None, &#x27;interfaces&#x27;: None, &#x27;ssl_private_key&#x27;: &#x27;&#x27;, &#x27;gae&#x27;: None, &#x27;password&#x27;: &#x27;asd&#x27;, &#x27;request_queue_size&#x27;: 5, &#x27;ssl_certificate&#x27;: &#x27;&#x27;, &#x27;cronjob&#x27;: False, &#x27;numthreads&#x27;: None, &#x27;quiet&#x27;: False, &#x27;import_models&#x27;: False, &#x27;timeout&#x27;: 10, &#x27;plain&#x27;: False, &#x27;nobanner&#x27;: False}&gt;</div></td></tr><tr><td style="font-weight:bold;vertical-align:top;">db_sessions</td><td style="vertical-align:top;">:</td><td><div>set([])</div></td></tr><tr><td style="font-weight:bold;vertical-align:top;">debugging</td><td style="vertical-align:top;">:</td><td><div>False</div></td></tr><tr><td style="font-weight:bold;vertical-align:top;">gluon_parent</td><td style="vertical-align:top;">:</td><td><div>/home/marco/trabajo/experimental/web2py</div></td></tr><tr><td style="font-weight:bold;vertical-align:top;">http_accept</td><td style="vertical-align:top;">:</td><td><div>text/html,application/xhtml+xml,application/xml;q=0.9,*/*;q=0.8</div></td></tr><tr><td style="font-weight:bold;vertical-align:top;">http_accept_encoding</td><td style="vertical-align:top;">:</td><td><div>gzip, deflate</div></td></tr><tr><td style="font-weight:bold;vertical-align:top;">http_accept_language</td><td style="vertical-align:top;">:</td><td><div>en-US,en;q=0.5</div></td></tr><tr><td style="font-weight:bold;vertical-align:top;">http_cache_control</td><td style="vertical-align:top;">:</td><td><div>max-age=0</div></td></tr><tr><td style="font-weight:bold;vertical-align:top;">http_connection</td><td style="vertical-align:top;">:</td><td><div>keep-alive</div></td></tr><tr><td style="font-weight:bold;vertical-align:top;">http_cookie</td><td style="vertical-align:top;">:</td><td><div>session_id_distribuidora=127.0.0.1-76c6f537-22dd-4e54-a449-0f450ee4875d</div></td></tr><tr><td style="font-weight:bold;vertical-align:top;">http_host</td><td style="vertical-align:top;">:</td><td><div>127.0.0.1:8000</div></td></tr><tr><td style="font-weight:bold;vertical-align:top;">http_user_agent</td><td style="vertical-align:top;">:</td><td><div>Mozilla/5.0 (X11; Linux x86_64; rv:31.0) Gecko/20100101 Firefox/31.0 Iceweasel/31.0</div></td></tr><tr><td style="font-weight:bold;vertical-align:top;">is_jython</td><td style="vertical-align:top;">:</td><td><div>False</div></td></tr><tr><td style="font-weight:bold;vertical-align:top;">is_pypy</td><td style="vertical-align:top;">:</td><td><div>False</div></td></tr><tr><td style="font-weight:bold;vertical-align:top;">is_source</td><td style="vertical-align:top;">:</td><td><div>True</div></td></tr><tr><td style="font-weight:bold;vertical-align:top;">local_hosts</td><td style="vertical-align:top;">:</td><td><div><table><tr><td><div>malena</div></td></tr><tr><td><div>::1</div></td></tr><tr><td><div>127.0.1.1</div></td></tr><tr><td><div>::ffff:127.0.0.1</div></td></tr><tr><td><div>127.0.0.1</div></td></tr></table></div></td></tr><tr><td style="font-weight:bold;vertical-align:top;">path_info</td><td style="vertical-align:top;">:</td><td><div>/distribuidora</div></td></tr><tr><td style="font-weight:bold;vertical-align:top;">query_string</td><td style="vertical-align:top;">:</td><td><div></div></td></tr><tr><td style="font-weight:bold;vertical-align:top;">remote_addr</td><td style="vertical-align:top;">:</td><td><div>127.0.0.1</div></td></tr><tr><td style="font-weight:bold;vertical-align:top;">remote_port</td><td style="vertical-align:top;">:</td><td><div>54650</div></td></tr><tr><td style="font-weight:bold;vertical-align:top;">request_method</td><td style="vertical-align:top;">:</td><td><div>GET</div></td></tr><tr><td style="font-weight:bold;vertical-align:top;">request_uri</td><td style="vertical-align:top;">:</td><td><div>/distribuidora</div></td></tr><tr><td style="font-weight:bold;vertical-align:top;">script_name</td><td style="vertical-align:top;">:</td><td><div></div></td></tr><tr><td style="font-weight:bold;vertical-align:top;">server_name</td><td style="vertical-align:top;">:</td><td><div>malena</div></td></tr><tr><td style="font-weight:bold;vertical-align:top;">server_port</td><td style="vertical-align:top;">:</td><td><div>8000</div></td></tr><tr><td style="font-weight:bold;vertical-align:top;">server_protocol</td><td style="vertical-align:top;">:</td><td><div>HTTP/1.1</div></td></tr><tr><td style="font-weight:bold;vertical-align:top;">server_software</td><td style="vertical-align:top;">:</td><td><div>Rocket 1.2.6</div></td></tr><tr><td style="font-weight:bold;vertical-align:top;">web2py_path</td><td style="vertical-align:top;">:</td><td><div>/home/marco/trabajo/experimental/web2py</div></td></tr><tr><td style="font-weight:bold;vertical-align:top;">web2py_version</td><td style="vertical-align:top;">:</td><td><div>2.9.5-trunk+timestamp.2014.06.14.10.06.38</div></td></tr><tr><td style="font-weight:bold;vertical-align:top;">wsgi.errors</td><td style="vertical-align:top;">:</td><td><div>&lt;open file &#x27;&lt;stderr&gt;&#x27;, mode &#x27;w&#x27; at 0x7fb80fd701e0&gt;</div></td></tr><tr><td style="font-weight:bold;vertical-align:top;">wsgi.file_wrapper</td><td style="vertical-align:top;">:</td><td><div>&lt;class wsgiref.util.FileWrapper at 0x7fb805740530&gt;</div></td></tr><tr><td style="font-weight:bold;vertical-align:top;">wsgi.input</td><td style="vertical-align:top;">:</td><td><div>&lt;socket._fileobject object at 0x7fb804092250&gt;</div></td></tr><tr><td style="font-weight:bold;vertical-align:top;">wsgi.multiprocess</td><td style="vertical-align:top;">:</td><td><div>False</div></td></tr><tr><td style="font-weight:bold;vertical-align:top;">wsgi.multithread</td><td style="vertical-align:top;">:</td><td><div>True</div></td></tr><tr><td style="font-weight:bold;vertical-align:top;">wsgi.run_once</td><td style="vertical-align:top;">:</td><td><div>False</div></td></tr><tr><td style="font-weight:bold;vertical-align:top;">wsgi.url_scheme</td><td style="vertical-align:top;">:</td><td><div>http</div></td></tr><tr><td style="font-weight:bold;vertical-align:top;">wsgi.version</td><td style="vertical-align:top;">:</td><td><div><table><tr><td><div>1</div></td></tr><tr><td><div>0</div></td></tr></table></div></td></tr><tr><td style="font-weight:bold;vertical-align:top;">wsgi_errors</td><td style="vertical-align:top;">:</td><td><div>&lt;open file &#x27;&lt;stderr&gt;&#x27;, mode &#x27;w&#x27; at 0x7fb80fd701e0&gt;</div></td></tr><tr><td style="font-weight:bold;vertical-align:top;">wsgi_file_wrapper</td><td style="vertical-align:top;">:</td><td><div>&lt;class wsgiref.util.FileWrapper at 0x7fb805740530&gt;</div></td></tr><tr><td style="font-weight:bold;vertical-align:top;">wsgi_input</td><td style="vertical-align:top;">:</td><td><div>&lt;socket._fileobject object at 0x7fb804092250&gt;</div></td></tr><tr><td style="font-weight:bold;vertical-align:top;">wsgi_multiprocess</td><td style="vertical-align:top;">:</td><td><div>False</div></td></tr><tr><td style="font-weight:bold;vertical-align:top;">wsgi_multithread</td><td style="vertical-align:top;">:</td><td><div>True</div></td></tr><tr><td style="font-weight:bold;vertical-align:top;">wsgi_run_once</td><td style="vertical-align:top;">:</td><td><div>False</div></td></tr><tr><td style="font-weight:bold;vertical-align:top;">wsgi_url_scheme</td><td style="vertical-align:top;">:</td><td><div>http</div></td></tr><tr><td style="font-weight:bold;vertical-align:top;">wsgi_version</td><td style="vertical-align:top;">:</td><td><div><table><tr><td><div>1</div></td></tr><tr><td><div>0</div></td></tr></table></div></td></tr></table></div></td></tr><tr><td style="font-weight:bold;vertical-align:top;">extension</td><td style="vertical-align:top;">:</td><td><div>html</div></td></tr><tr><td style="font-weight:bold;vertical-align:top;">folder</td><td style="vertical-align:top;">:</td><td><div>/home/marco/trabajo/experimental/web2py/applications/distribuidora/</div></td></tr><tr><td style="font-weight:bold;vertical-align:top;">function</td><td style="vertical-align:top;">:</td><td><div>index</div></td></tr><tr><td style="font-weight:bold;vertical-align:top;">global_settings</td><td style="vertical-align:top;">:</td><td><div><table><tr><td style="font-weight:bold;vertical-align:top;">app_folders</td><td style="vertical-align:top;">:</td><td><div>set([&#x27;/home/marco/trabajo/experimental/web2py/applications/distribuidora/&#x27;])</div></td></tr><tr><td style="font-weight:bold;vertical-align:top;">applications_parent</td><td style="vertical-align:top;">:</td><td><div>/home/marco/trabajo/experimental/web2py</div></td></tr><tr><td style="font-weight:bold;vertical-align:top;">cmd_args</td><td style="vertical-align:top;">:</td><td><div><table></table></div></td></tr><tr><td style="font-weight:bold;vertical-align:top;">cmd_options</td><td style="vertical-align:top;">:</td><td><div>&lt;Values at 0x7fb8056c1b48: {&#x27;verbose&#x27;: False, &#x27;ip&#x27;: &#x27;127.0.0.1&#x27;, &#x27;debuglevel&#x27;: 30, &#x27;with_scheduler&#x27;: False, &#x27;ips&#x27;: [&#x27;127.0.1.1&#x27;], &#x27;shutdown_timeout&#x27;: 5, &#x27;taskbar&#x27;: False, &#x27;with_coverage&#x27;: False, &#x27;scheduler_groups&#x27;: None, &#x27;port&#x27;: 8000, &#x27;maxthreads&#x27;: None, &#x27;softcron&#x27;: False, &#x27;server_name&#x27;: &#x27;malena&#x27;, &#x27;bpython&#x27;: False, &#x27;nogui&#x27;: False, &#x27;pid_filename&#x27;: &#x27;httpserver.pid&#x27;, &#x27;extcron&#x27;: False, &#x27;runcron&#x27;: False, &#x27;run_system_tests&#x27;: False, &#x27;test&#x27;: None, &#x27;folder&#x27;: &#x27;/home/marco/trabajo/experimental/web2py&#x27;, &#x27;config&#x27;: &#x27;&#x27;, &#x27;minthreads&#x27;: None, &#x27;shell&#x27;: None, &#x27;run&#x27;: &#x27;&#x27;, &#x27;log_filename&#x27;: &#x27;httpserver.log&#x27;, &#x27;profiler_dir&#x27;: None, &#x27;args&#x27;: [&#x27;&#x27;], &#x27;socket_timeout&#x27;: 5, &#x27;ssl_ca_certificate&#x27;: None, &#x27;scheduler&#x27;: None, &#x27;interfaces&#x27;: None, &#x27;ssl_private_key&#x27;: &#x27;&#x27;, &#x27;gae&#x27;: None, &#x27;password&#x27;: &#x27;asd&#x27;, &#x27;request_queue_size&#x27;: 5, &#x27;ssl_certificate&#x27;: &#x27;&#x27;, &#x27;cronjob&#x27;: False, &#x27;numthreads&#x27;: None, &#x27;quiet&#x27;: False, &#x27;import_models&#x27;: False, &#x27;timeout&#x27;: 10, &#x27;plain&#x27;: False, &#x27;nobanner&#x27;: False}&gt;</div></td></tr><tr><td style="font-weight:bold;vertical-align:top;">db_sessions</td><td style="vertical-align:top;">:</td><td><div>set([])</div></td></tr><tr><td style="font-weight:bold;vertical-align:top;">debugging</td><td style="vertical-align:top;">:</td><td><div>False</div></td></tr><tr><td style="font-weight:bold;vertical-align:top;">gluon_parent</td><td style="vertical-align:top;">:</td><td><div>/home/marco/trabajo/experimental/web2py</div></td></tr><tr><td style="font-weight:bold;vertical-align:top;">is_jython</td><td style="vertical-align:top;">:</td><td><div>False</div></td></tr><tr><td style="font-weight:bold;vertical-align:top;">is_pypy</td><td style="vertical-align:top;">:</td><td><div>False</div></td></tr><tr><td style="font-weight:bold;vertical-align:top;">is_source</td><td style="vertical-align:top;">:</td><td><div>True</div></td></tr><tr><td style="font-weight:bold;vertical-align:top;">local_hosts</td><td style="vertical-align:top;">:</td><td><div><table><tr><td><div>malena</div></td></tr><tr><td><div>::1</div></td></tr><tr><td><div>127.0.1.1</div></td></tr><tr><td><div>::ffff:127.0.0.1</div></td></tr><tr><td><div>127.0.0.1</div></td></tr></table></div></td></tr><tr><td style="font-weight:bold;vertical-align:top;">web2py_version</td><td style="vertical-align:top;">:</td><td><div>2.9.5-trunk+timestamp.2014.06.14.10.06.38</div></td></tr></table></div></td></tr><tr><td style="font-weight:bold;vertical-align:top;">is_https</td><td style="vertical-align:top;">:</td><td><div>False</div></td></tr><tr><td style="font-weight:bold;vertical-align:top;">is_local</td><td style="vertical-align:top;">:</td><td><div>True</div></td></tr><tr><td style="font-weight:bold;vertical-align:top;">is_restful</td><td style="vertical-align:top;">:</td><td><div>False</div></td></tr><tr><td style="font-weight:bold;vertical-align:top;">now</td><td style="vertical-align:top;">:</td><td><div>datetime.datetime(2014, 7, 19, 18, 53, 26, 715548)</div></td></tr><tr><td style="font-weight:bold;vertical-align:top;">raw_args</td><td style="vertical-align:top;">:</td><td><div></div></td></tr><tr><td style="font-weight:bold;vertical-align:top;">raw_extension</td><td style="vertical-align:top;">:</td><td><div>None</div></td></tr><tr><td style="font-weight:bold;vertical-align:top;">url</td><td style="vertical-align:top;">:</td><td><div>/distribuidora</div></td></tr><tr><td style="font-weight:bold;vertical-align:top;">utcnow</td><td style="vertical-align:top;">:</td><td><div>datetime.datetime(2014, 7, 19, 21, 53, 26, 715578)</div></td></tr><tr><td style="font-weight:bold;vertical-align:top;">uuid</td><td style="vertical-align:top;">:</td><td><div>distribuidora/127.0.0.1.2014-07-19.18-53-26.2586c41b-d581-4767-a667-2f31aab1a6ec</div></td></tr><tr><td style="font-weight:bold;vertical-align:top;">wsgi</td><td style="vertical-align:top;">:</td><td><div>&lt;gluon.main.LazyWSGI object at 0x7fb804086690&gt;</div></td></tr></table></div>'
tRp58
sS'frames'
p59
(lp60
(dp61
S'file'
p62
S'/home/marco/trabajo/experimental/web2py/gluon/restricted.py'
p63
sS'dump'
p64
(dp65
S'environment'
p66
S"{'A': <class 'gluon.html.A'>, 'ANY_OF': <class 'gluon.validators.ANY_OF'>, 'Auth': <class 'gluon.tools.Auth'>, 'B': <class 'gluon.html.B'>, 'BEAUTIFY': <class 'gluon.html.BEAUTIFY'>, 'BODY': <class 'gluon.html.BODY'>, 'BR': <class 'gluon.html.BR'>, 'BUTTON': <class 'gluon.html.BUTTON'>, 'CAT': <class 'gluon.html.CAT'>, 'CENTER': <class 'gluon.html.CENTER'>, ...}"
p67
sS'ccode'
p68
S'<code object <module> at 0x7fb804092ab0, file "/.../distribuidora/views/default/index.html", line 1>'
p69
ssS'lnum'
p70
I221
sS'lines'
p71
(dp72
I224
S'    except RestrictedError:'
p73
sI225
S'        # do not encapsulate (obfuscate) the original RestrictedError'
p74
sI216
S'    try:'
p75
sI217
S'        if isinstance(code, types.CodeType):'
p76
sI218
S'            ccode = code'
p77
sI219
S'        else:'
p78
sI220
S'            ccode = compile2(code, layer)'
p79
sI221
S'        exec ccode in environment'
p80
sI222
S'    except HTTP:'
p81
sI223
S'        raise'
p82
ssS'call'
p83
S'(code=r"left_sidebar_enabled,right_sidebar_enabled=False...>\\r\\n\\t</body>\\r\\n</html>\\r\\n\\r\\n\', escape=False)", environment={\'A\': <class \'gluon.html.A\'>, \'ANY_OF\': <class \'gluon.validators.ANY_OF\'>, \'Auth\': <class \'gluon.tools.Auth\'>, \'B\': <class \'gluon.html.B\'>, \'BEAUTIFY\': <class \'gluon.html.BEAUTIFY\'>, \'BODY\': <class \'gluon.html.BODY\'>, \'BR\': <class \'gluon.html.BR\'>, \'BUTTON\': <class \'gluon.html.BUTTON\'>, \'CAT\': <class \'gluon.html.CAT\'>, \'CENTER\': <class \'gluon.html.CENTER\'>, ...}, layer=\'/home/marco/trabajo/experimental/web2py/applications/distribuidora/views/default/index.html\')'
p84
sS'func'
p85
S'restricted'
p86
sa(dp87
g62
S'/home/marco/trabajo/experimental/web2py/applications/distribuidora/views/default/index.html'
p88
sg64
(dp89
S'builtinglobals'
p90
S'<built-in function globals>'
p91
ssg70
I4
sg71
(dp92
I1
S"left_sidebar_enabled,right_sidebar_enabled=False,('message' in globals())"
p93
sI2
S"response.write('\\n', escape=False)"
p94
sI3
S'response.write(\'<!DOCTYPE html>\\r\\n<html lang="en">\\r\\n\\t<head>\\r\\n\\t\\t<title>About</title>\\r\\n\\t\\t<meta charset="utf-8">\\r\\n\\t\\t<meta name="format-detection" content="telephone=no" />\\r\\n\\t\\t<link rel="icon" href="\', escape=False)'
p95
sI4
S'response.write(URL(images/favicon.ico))'
p96
sI5
S'response.write(\'">\\r\\n\\t\\t<link rel="shortcut icon" href="images/favicon.ico" />\\r\\n\\t\\t<link rel="stylesheet" href="booking/css/booking.css">\\r\\n\\t\\t<link rel="stylesheet" href="css/camera.css">\\r\\n\\t\\t<link rel="stylesheet" href="css/owl.carousel.css">\\r\\n\\t\\t<link rel="stylesheet" href="css/style.css">\\r\\n\\t\\t<script src="js/jquery.js"></script>\\r\\n\\t\\t<script src="js/jquery-migrate-1.2.1.js"></script>\\r\\n\\t\\t<script src="js/script.js"></script>\\r\\n\\t\\t<script src="js/superfish.js"></script>\\r\\n\\t\\t<script src="js/jquery.ui.totop.js"></script>\\r\\n\\t\\t<script src="js/jquery.equalheights.js"></script>\\r\\n\\t\\t<script src="js/jquery.mobilemenu.js"></script>\\r\\n\\t\\t<script src="js/jquery.easing.1.3.js"></script>\\r\\n\\t\\t<script src="js/owl.carousel.js"></script>\\r\\n\\t\\t<script src="js/camera.js"></script>\\r\\n\\t\\t<!--[if (gt IE 9)|!(IE)]><!-->\\r\\n\\t\\t<script src="js/jquery.mobile.customized.min.js"></script>\\r\\n\\t\\t<!--<![endif]-->\\r\\n\\t\\t<script src="booking/js/booking.js"></script>\\r\\n\\t\\t<script>\\r\\n\\t\\t\\t$(document).ready(function(){\\r\\n\\t\\t\\tjQuery(\\\'#camera_wrap\\\').camera({\\r\\n\\t\\t\\t\\tloader: false,\\r\\n\\t\\t\\t\\tpagination: false ,\\r\\n\\t\\t\\t\\tminHeight: \\\'444\\\',\\r\\n\\t\\t\\t\\tthumbnails: false,\\r\\n\\t\\t\\t\\theight: \\\'48.375%\\\',\\r\\n\\t\\t\\t\\tcaption: true,\\r\\n\\t\\t\\t\\tnavigation: true,\\r\\n\\t\\t\\t\\tfx: \\\'mosaic\\\'\\r\\n\\t\\t\\t});\\r\\n\\t\\t\\t/*carousel*/\\r\\n\\t\\t\\tvar owl=$("#owl");\\r\\n\\t\\t\\t\\towl.owlCarousel({\\r\\n\\t\\t\\t\\titems : 2, //10 items above 1000px browser width\\r\\n\\t\\t\\t\\titemsDesktop : [995,2], //5 items between 1000px and 901px\\r\\n\\t\\t\\t\\titemsDesktopSmall : [767, 2], // betweem 900px and 601px\\r\\n\\t\\t\\t\\titemsTablet: [700, 2], //2 items between 600 and 0\\r\\n\\t\\t\\t\\titemsMobile : [479, 1], // itemsMobile disabled - inherit from itemsTablet option\\r\\n\\t\\t\\t\\tnavigation : true,\\r\\n\\t\\t\\t\\tpagination : false\\r\\n\\t\\t\\t\\t});\\r\\n\\t\\t\\t$().UItoTop({ easingType: \\\'easeOutQuart\\\' });\\r\\n\\t\\t\\t});\\r\\n\\t\\t</script>\\r\\n\\t\\t<!--[if lt IE 8]>\\r\\n\\t\\t<div style=\\\' clear: both; text-align:center; position: relative;\\\'>\\r\\n\\t\\t\\t<a href="http://windows.microsoft.com/en-US/internet-explorer/products/ie/home?ocid=ie6_countdown_bannercode">\\r\\n\\t\\t\\t\\t<img src="http://storage.ie6countdown.com/assets/100/images/banners/warning_bar_0000_us.jpg" border="0" height="42" width="820" alt="You are using an outdated browser. For a faster, safer browsing experience, upgrade for free today." />\\r\\n\\t\\t\\t</a>\\r\\n\\t\\t</div>\\r\\n\\t\\t<![endif]-->\\r\\n\\t\\t<!--[if lt IE 9]>\\r\\n\\t\\t<script src="js/html5shiv.js"></script>\\r\\n\\t\\t<link rel="stylesheet" media="screen" href="css/ie.css">\\r\\n\\t\\t<![endif]-->\\r\\n\\t</head>\\r\\n\\t<body class="page1" id="top">\\r\\n<!--==============================header=================================-->\\r\\n\\t\\t<header>\\r\\n\\t\\t\\t<div class="container_12">\\r\\n\\t\\t\\t\\t<div class="grid_12">\\r\\n\\t\\t\\t\\t\\t<div class="menu_block">\\r\\n\\t\\t\\t\\t\\t\\t<nav class="horizontal-nav full-width horizontalNav-notprocessed">\\r\\n\\t\\t\\t\\t\\t\\t\\t<ul class="sf-menu">\\r\\n\\t\\t\\t\\t\\t\\t\\t\\t<li class="current"><a href="index.html">ABOUT</a></li>\\r\\n\\t\\t\\t\\t\\t\\t\\t\\t<li><a href="index-1.html">HOT TOURS</a></li>\\r\\n\\t\\t\\t\\t\\t\\t\\t\\t<li><a href="index-2.html">SPECIAL OFFERS</a></li>\\r\\n\\t\\t\\t\\t\\t\\t\\t\\t<li><a href="index-3.html">BLOG</a></li>\\r\\n\\t\\t\\t\\t\\t\\t\\t\\t<li><a href="index-4.html">CONTACTS</a></li>\\r\\n\\t\\t\\t\\t\\t\\t\\t</ul>\\r\\n\\t\\t\\t\\t\\t\\t</nav>\\r\\n\\t\\t\\t\\t\\t\\t<div class="clear"></div>\\r\\n\\t\\t\\t\\t\\t</div>\\r\\n\\t\\t\\t\\t</div>\\r\\n\\t\\t\\t\\t<div class="grid_12">\\r\\n\\t\\t\\t\\t\\t<h1>\\r\\n\\t\\t\\t\\t\\t\\t<a href="index.html">\\r\\n\\t\\t\\t\\t\\t\\t\\t<img src="images/logo.png" alt="Your Happy Family">\\r\\n\\t\\t\\t\\t\\t\\t</a>\\r\\n\\t\\t\\t\\t\\t</h1>\\r\\n\\t\\t\\t\\t</div>\\r\\n\\t\\t\\t</div>\\r\\n\\t\\t</header>\\r\\n\\t\\t<div class="slider_wrapper">\\r\\n\\t\\t\\t<div id="camera_wrap" class="">\\r\\n\\t\\t\\t\\t<div data-src="images/slide.jpg">\\r\\n\\t\\t\\t\\t\\t<div class="caption fadeIn">\\r\\n\\t\\t\\t\\t\\t\\t<h2>LONDON</h2>\\r\\n\\t\\t\\t\\t\\t\\t<div class="price">\\r\\n\\t\\t\\t\\t\\t\\t\\tFROM\\r\\n\\t\\t\\t\\t\\t\\t\\t<span>&#163;1000</span>\\r\\n\\t\\t\\t\\t\\t\\t</div>\\r\\n\\t\\t\\t\\t\\t\\t<a href="#">LEARN MORE</a>\\r\\n\\t\\t\\t\\t\\t</div>\\r\\n\\t\\t\\t\\t</div>\\r\\n\\t\\t\\t\\t<div data-src="images/slide1.jpg">\\r\\n\\t\\t\\t\\t\\t<div class="caption fadeIn">\\r\\n\\t\\t\\t\\t\\t\\t<h2>Maldives</h2>\\r\\n\\t\\t\\t\\t\\t\\t<div class="price">\\r\\n\\t\\t\\t\\t\\t\\t\\tFROM\\r\\n\\t\\t\\t\\t\\t\\t\\t<span>&#163;2000</span>\\r\\n\\t\\t\\t\\t\\t\\t</div>\\r\\n\\t\\t\\t\\t\\t\\t<a href="#">LEARN MORE</a>\\r\\n\\t\\t\\t\\t\\t</div>\\r\\n\\t\\t\\t\\t</div>\\r\\n\\t\\t\\t\\t<div data-src="images/slide2.jpg">\\r\\n\\t\\t\\t\\t\\t<div class="caption fadeIn">\\r\\n\\t\\t\\t\\t\\t\\t<h2>Venice</h2>\\r\\n\\t\\t\\t\\t\\t\\t<div class="price">\\r\\n\\t\\t\\t\\t\\t\\t\\tFROM\\r\\n\\t\\t\\t\\t\\t\\t\\t<span>&#163;1600</span>\\r\\n\\t\\t\\t\\t\\t\\t</div>\\r\\n\\t\\t\\t\\t\\t\\t<a href="#">LEARN MORE</a>\\r\\n\\t\\t\\t\\t\\t</div>\\r\\n\\t\\t\\t\\t</div>\\r\\n\\t\\t\\t</div>\\r\\n\\t\\t</div>\\r\\n<!--==============================Content=================================-->\\r\\n\\t\\t<div class="content">\\r\\n\\t\\t\\t<div class="container_12">\\r\\n\\t\\t\\t\\t<div class="grid_4">\\r\\n\\t\\t\\t\\t\\t<div class="banner">\\r\\n\\t\\t\\t\\t\\t\\t<img src="images/ban_img1.jpg" alt="">\\r\\n\\t\\t\\t\\t\\t\\t<div class="label">\\r\\n\\t\\t\\t\\t\\t\\t\\t<div class="title">Barcelona</div>\\r\\n\\t\\t\\t\\t\\t\\t\\t<div class="price">FROM<span>&#163; 1000</span></div>\\r\\n\\t\\t\\t\\t\\t\\t\\t<a href="#">LEARN MORE</a>\\r\\n\\t\\t\\t\\t\\t\\t</div>\\r\\n\\t\\t\\t\\t\\t</div>\\r\\n\\t\\t\\t\\t</div>\\r\\n\\t\\t\\t\\t<div class="grid_4">\\r\\n\\t\\t\\t\\t\\t<div class="banner">\\r\\n\\t\\t\\t\\t\\t\\t<img src="images/ban_img2.jpg" alt="">\\r\\n\\t\\t\\t\\t\\t\\t<div class="label">\\r\\n\\t\\t\\t\\t\\t\\t\\t<div class="title">GOA</div>\\r\\n\\t\\t\\t\\t\\t\\t\\t<div class="price">FROM<span>&#163; 1.500</span></div>\\r\\n\\t\\t\\t\\t\\t\\t\\t<a href="#">LEARN MORE</a>\\r\\n\\t\\t\\t\\t\\t\\t</div>\\r\\n\\t\\t\\t\\t\\t</div>\\r\\n\\t\\t\\t\\t</div>\\r\\n\\t\\t\\t\\t<div class="grid_4">\\r\\n\\t\\t\\t\\t\\t<div class="banner">\\r\\n\\t\\t\\t\\t\\t\\t<img src="images/ban_img3.jpg" alt="">\\r\\n\\t\\t\\t\\t\\t\\t<div class="label">\\r\\n\\t\\t\\t\\t\\t\\t\\t<div class="title">PARIS</div>\\r\\n\\t\\t\\t\\t\\t\\t\\t<div class="price">FROM<span>&#163; 1.600</span></div>\\r\\n\\t\\t\\t\\t\\t\\t\\t<a href="#">LEARN MORE</a>\\r\\n\\t\\t\\t\\t\\t\\t</div>\\r\\n\\t\\t\\t\\t\\t</div>\\r\\n\\t\\t\\t\\t</div>\\r\\n\\t\\t\\t\\t<div class="clear"></div>\\r\\n\\t\\t\\t\\t<div class="grid_6">\\r\\n\\t\\t\\t\\t\\t<h3>Booking Form</h3>\\r\\n\\t\\t\\t\\t\\t<form id="bookingForm">\\r\\n\\t\\t\\t\\t\\t\\t<div class="fl1">\\r\\n\\t\\t\\t\\t\\t\\t\\t<div class="tmInput">\\r\\n\\t\\t\\t\\t\\t\\t\\t\\t<input name="Name" placeHolder="Name:" type="text" data-constraints=\\\'@NotEmpty @Required @AlphaSpecial\\\'>\\r\\n\\t\\t\\t\\t\\t\\t\\t</div>\\r\\n\\t\\t\\t\\t\\t\\t\\t<div class="tmInput">\\r\\n\\t\\t\\t\\t\\t\\t\\t\\t<input name="Country" placeHolder="Country:" type="text" data-constraints="@NotEmpty @Required">\\r\\n\\t\\t\\t\\t\\t\\t\\t</div>\\r\\n\\t\\t\\t\\t\\t\\t</div>\\r\\n\\t\\t\\t\\t\\t\\t<div class="fl1">\\r\\n\\t\\t\\t\\t\\t\\t\\t<div class="tmInput">\\r\\n\\t\\t\\t\\t\\t\\t\\t\\t<input name="Email" placeHolder="Email:" type="text" data-constraints="@NotEmpty @Required @Email">\\r\\n\\t\\t\\t\\t\\t\\t\\t</div>\\r\\n\\t\\t\\t\\t\\t\\t\\t<div class="tmInput mr0">\\r\\n\\t\\t\\t\\t\\t\\t\\t\\t<input name="Hotel" placeHolder="Hotel:" type="text" data-constraints="@NotEmpty @Required">\\r\\n\\t\\t\\t\\t\\t\\t\\t</div>\\r\\n\\t\\t\\t\\t\\t\\t</div>\\r\\n\\t\\t\\t\\t\\t\\t<div class="clear"></div>\\r\\n\\t\\t\\t\\t\\t\\t<strong>Check-in</strong>\\r\\n\\t\\t\\t\\t\\t\\t<label class="tmDatepicker">\\r\\n\\t\\t\\t\\t\\t\\t\\t<input type="text" name="Check-in" placeHolder=\\\'10/05/2014\\\' data-constraints="@NotEmpty @Required @Date">\\r\\n\\t\\t\\t\\t\\t\\t</label>\\r\\n\\t\\t\\t\\t\\t\\t<div class="clear"></div>\\r\\n\\t\\t\\t\\t\\t\\t<strong>Check-out</strong>\\r\\n\\t\\t\\t\\t\\t\\t<label class="tmDatepicker">\\r\\n\\t\\t\\t\\t\\t\\t\\t<input type="text" name="Check-out" placeHolder=\\\'20/05/2014\\\' data-constraints="@NotEmpty @Required @Date">\\r\\n\\t\\t\\t\\t\\t\\t</label>\\r\\n\\t\\t\\t\\t\\t\\t<div class="clear"></div>\\r\\n\\t\\t\\t\\t\\t\\t<div class="tmRadio">\\r\\n\\t\\t\\t\\t\\t\\t\\t<p>Comfort</p>\\r\\n\\t\\t\\t\\t\\t\\t\\t<input name="Comfort" type="radio" id="tmRadio0" data-constraints=\\\'@RadioGroupChecked(name="Comfort", groups=[RadioGroup])\\\' checked/>\\r\\n\\t\\t\\t\\t\\t\\t\\t<span>Cheap</span>\\r\\n\\t\\t\\t\\t\\t\\t\\t<input name="Comfort" type="radio" id="tmRadio1" data-constraints=\\\'@RadioGroupChecked(name="Comfort", groups=[RadioGroup])\\\' />\\r\\n\\t\\t\\t\\t\\t\\t\\t<span>Standart</span>\\r\\n\\t\\t\\t\\t\\t\\t\\t<input name="Comfort" type="radio" id="tmRadio2" data-constraints=\\\'@RadioGroupChecked(name="Comfort", groups=[RadioGroup])\\\' />\\r\\n\\t\\t\\t\\t\\t\\t\\t<span>Lux</span>\\r\\n\\t\\t\\t\\t\\t\\t</div>\\r\\n\\t\\t\\t\\t\\t\\t<div class="clear"></div>\\r\\n\\t\\t\\t\\t\\t\\t<div class="fl1 fl2">\\r\\n\\t\\t\\t\\t\\t\\t\\t<em>Adults</em>\\r\\n\\t\\t\\t\\t\\t\\t\\t<select name="Adults" class="tmSelect auto" data-class="tmSelect tmSelect2" data-constraints="">\\r\\n\\t\\t\\t\\t\\t\\t\\t\\t<option>1</option>\\r\\n\\t\\t\\t\\t\\t\\t\\t\\t<option>1</option>\\r\\n\\t\\t\\t\\t\\t\\t\\t\\t<option>2</option>\\r\\n\\t\\t\\t\\t\\t\\t\\t\\t<option>3</option>\\r\\n\\t\\t\\t\\t\\t\\t\\t</select>\\r\\n\\t\\t\\t\\t\\t\\t\\t<div class="clear"></div>\\r\\n\\t\\t\\t\\t\\t\\t\\t<em>Rooms</em>\\r\\n\\t\\t\\t\\t\\t\\t\\t<select name="Rooms" class="tmSelect auto" data-class="tmSelect tmSelect2" data-constraints="">\\r\\n\\t\\t\\t\\t\\t\\t\\t\\t<option>1</option>\\r\\n\\t\\t\\t\\t\\t\\t\\t\\t<option>1</option>\\r\\n\\t\\t\\t\\t\\t\\t\\t\\t<option>2</option>\\r\\n\\t\\t\\t\\t\\t\\t\\t\\t<option>3</option>\\r\\n\\t\\t\\t\\t\\t\\t\\t</select>\\r\\n\\t\\t\\t\\t\\t\\t</div>\\r\\n\\t\\t\\t\\t\\t\\t<div class="fl1 fl2">\\r\\n\\t\\t\\t\\t\\t\\t\\t<em>Children</em>\\r\\n\\t\\t\\t\\t\\t\\t\\t<select name="Children" class="tmSelect auto" data-class="tmSelect tmSelect2" data-constraints="">\\r\\n\\t\\t\\t\\t\\t\\t\\t\\t<option>0</option>\\r\\n\\t\\t\\t\\t\\t\\t\\t\\t<option>0</option>\\r\\n\\t\\t\\t\\t\\t\\t\\t\\t<option>1</option>\\r\\n\\t\\t\\t\\t\\t\\t\\t\\t<option>2</option>\\r\\n\\t\\t\\t\\t\\t\\t\\t</select>\\r\\n\\t\\t\\t\\t\\t\\t</div>\\r\\n\\t\\t\\t\\t\\t\\t<div class="clear"></div>\\r\\n\\t\\t\\t\\t\\t\\t<div class="tmTextarea">\\r\\n\\t\\t\\t\\t\\t\\t\\t<textarea name="Message" placeHolder="Message" data-constraints=\\\'@NotEmpty @Required @Length(min=20,max=999999)\\\'></textarea>\\r\\n\\t\\t\\t\\t\\t\\t</div>\\r\\n\\t\\t\\t\\t\\t\\t<a href="#" class="btn" data-type="submit">Submit</a>\\r\\n\\t\\t\\t\\t\\t</form>\\r\\n\\t\\t\\t\\t</div>\\r\\n\\t\\t\\t\\t<div class="grid_5 prefix_1">\\r\\n\\t\\t\\t\\t\\t<h3>Welcome</h3>\\r\\n\\t\\t\\t\\t\\t<img src="images/page1_img1.jpg" alt="" class="img_inner fleft">\\r\\n\\t\\t\\t\\t\\t<div class="extra_wrapper">\\r\\n\\t\\t\\t\\t\\t\\t<p>Lorem ipsum dolor sit ere amet, consectetur ipiscin.</p>\\r\\n\\t\\t\\t\\t\\t\\tIn mollis erat mattis neque facilisis, sit ametiol\\r\\n\\t\\t\\t\\t\\t</div>\\r\\n\\t\\t\\t\\t\\t<div class="clear cl1"></div>\\r\\n\\t\\t\\t\\t\\t<p>Find the detailed description of this <span class="col1"><a href="http://blog.templatemonster.com/free-website-templates/?aff=awdawd" rel="dofollow">freebie</a></span> at TemplateMonster blog.</p>\\r\\n\\t\\t\\t\\t\\t<p><span class="col1"><a href="http://store.templatemonster.com/?aff=awdawd" rel="nofollow">Travel Website Templates</a></span> category offers you a variety of designs that are perfect for travel sphere of business.</p>\\r\\n\\t\\t\\t\\t\\tProin pharetra luctus diam, a scelerisque eros convallis\\r\\n\\t\\t\\t\\t\\t<h4>Clients\\xe2\\x80\\x99 Quotes</h4>\\r\\n\\t\\t\\t\\t\\t<blockquote class="bq1">\\r\\n\\t\\t\\t\\t\\t\\t<img src="images/page1_img2.jpg" alt="" class="img_inner noresize fleft">\\r\\n\\t\\t\\t\\t\\t\\t<div class="extra_wrapper">\\r\\n\\t\\t\\t\\t\\t\\t\\t<p>Duis massa elit, auctor non pellentesque vel, aliquet sit amet erat. Nullam eget dignissim nisi, aliquam feugiat nibh. </p>\\r\\n\\t\\t\\t\\t\\t\\t\\t<div class="alright">\\r\\n\\t\\t\\t\\t\\t\\t\\t\\t<div class="col1">Miranda Brown</div>\\r\\n\\t\\t\\t\\t\\t\\t\\t\\t<a href="#" class="btn">More</a>\\r\\n\\t\\t\\t\\t\\t\\t\\t</div>\\r\\n\\t\\t\\t\\t\\t\\t</div>\\r\\n\\t\\t\\t\\t\\t</blockquote>\\r\\n\\t\\t\\t\\t</div>\\r\\n\\t\\t\\t\\t<div class="grid_12">\\r\\n\\t\\t\\t\\t\\t<h3 class="head1">Latest News</h3>\\r\\n\\t\\t\\t\\t</div>\\r\\n\\t\\t\\t\\t<div class="grid_4">\\r\\n\\t\\t\\t\\t\\t<div class="block1">\\r\\n\\t\\t\\t\\t\\t\\t<time datetime="2014-01-01">10<span>Jan</span></time>\\r\\n\\t\\t\\t\\t\\t\\t<div class="extra_wrapper">\\r\\n\\t\\t\\t\\t\\t\\t\\t<div class="text1 col1"><a href="#">Aliquam nibh</a></div>\\r\\n\\t\\t\\t\\t\\t\\t\\tProin pharetra luctus diam, any scelerisque eros convallisumsan. Maecenas vehicula egestas\\r\\n\\t\\t\\t\\t\\t\\t</div>\\r\\n\\t\\t\\t\\t\\t</div>\\r\\n\\t\\t\\t\\t</div>\\r\\n\\t\\t\\t\\t<div class="grid_4">\\r\\n\\t\\t\\t\\t\\t<div class="block1">\\r\\n\\t\\t\\t\\t\\t\\t<time datetime="2014-01-01">21<span>Jan</span></time>\\r\\n\\t\\t\\t\\t\\t\\t<div class="extra_wrapper">\\r\\n\\t\\t\\t\\t\\t\\t\\t<div class="text1 col1"><a href="#">Etiam dui eros</a></div>\\r\\n\\t\\t\\t\\t\\t\\t\\tAny scelerisque eros vallisumsan. Maecenas vehicula egestas natis. Duis massa elit, auctor non\\r\\n\\t\\t\\t\\t\\t\\t</div>\\r\\n\\t\\t\\t\\t\\t</div>\\r\\n\\t\\t\\t\\t</div>\\r\\n\\t\\t\\t\\t<div class="grid_4">\\r\\n\\t\\t\\t\\t\\t<div class="block1">\\r\\n\\t\\t\\t\\t\\t\\t<time datetime="2014-01-01">15<span>Feb</span></time>\\r\\n\\t\\t\\t\\t\\t\\t<div class="extra_wrapper">\\r\\n\\t\\t\\t\\t\\t\\t\\t<div class="text1 col1"><a href="#">uamnibh Edeto</a></div>\\r\\n\\t\\t\\t\\t\\t\\t\\tRos convallisumsan. Maecenas vehicula egestas venenatis. Duis massa elit, auctor non\\r\\n\\t\\t\\t\\t\\t\\t</div>\\r\\n\\t\\t\\t\\t\\t</div>\\r\\n\\t\\t\\t\\t</div>\\r\\n\\t\\t\\t</div>\\r\\n\\t\\t</div>\\r\\n<!--==============================footer=================================-->\\r\\n\\t\\t<footer>\\r\\n\\t\\t\\t<div class="container_12">\\r\\n\\t\\t\\t\\t<div class="grid_12">\\r\\n\\t\\t\\t\\t\\t<div class="socials">\\r\\n\\t\\t\\t\\t\\t\\t<a href="#" class="fa fa-facebook"></a>\\r\\n\\t\\t\\t\\t\\t\\t<a href="https://twitter.com/oswt" class="fa fa-twitter"></a>\\r\\n\\t\\t\\t\\t\\t\\t<a href="#" class="fa fa-google-plus"></a>\\r\\n\\t\\t\\t\\t\\t</div>\\r\\n\\t\\t\\t\\t\\t\\t<div class="copy">\\r\\nYour Trip (c) 2014 | <a href="index-5.html">Privacy Policy</a><br>\\r\\nWebsite Template Designed by <a href="http://store.templatemonster.com/?aff=awdawd" rel="nofollow">TemplateMonster.com</a> \\r\\nSelection of <a href="http://www.oswt.co.uk/" rel="nofollow">free web templates</a>.\\r\\n\\t\\t\\t\\t\\t</div>\\r\\n\\t\\t\\t\\t</div>\\r\\n\\t\\t\\t</div>\\r\\n\\t\\t</footer>\\r\\n\\t\\t<script>\\r\\n\\t\\t\\t$(function (){\\r\\n\\t\\t\\t\\t$(\\\'#bookingForm\\\').bookingForm({\\r\\n\\t\\t\\t\\t\\townerEmail: \\\'#\\\'\\r\\n\\t\\t\\t\\t});\\r\\n\\t\\t\\t})\\r\\n\\t\\t\\t$(function() {\\r\\n\\t\\t\\t\\t$(\\\'#bookingForm input, #bookingForm textarea\\\').placeholder();\\r\\n\\t\\t\\t});\\r\\n\\t\\t</script>\\r\\n\\t</body>\\r\\n</html>\\r\\n\\r\\n\', escape=False)'
p97
ssg83
S'()'
p98
sg85
S'<module>'
p99
sasS'pyver'
p100
S'Python 2.7.8: /usr/bin/python (prefix: /usr)'
p101
sS'session'
p102
g57
(S's\x1a\x00\x00\x00<div><table></table></div>'
tRp103
sS'etype'
p104
S"<type 'exceptions.NameError'>"
p105
sS'date'
p106
S'Sat Jul 19 18:53:26 2014'
p107
sS'response'
p108
g57
(S's\xca0\x00\x00<div><table><tr><td style="font-weight:bold;vertical-align:top;">body</td><td style="vertical-align:top;">:</td><td><div>&lt;cStringIO.StringO object at 0x7fb80408efb8&gt;</div></td></tr><tr><td style="font-weight:bold;vertical-align:top;">cookies</td><td style="vertical-align:top;">:</td><td><div><table><tr><td style="font-weight:bold;vertical-align:top;">session_id_distribuidora</td><td style="vertical-align:top;">:</td><td><div>127.0.0.1-5dfe44b4-6370-4a65-b95a-ff6dc6a14661<table><tr><td style="font-weight:bold;vertical-align:top;">comment</td><td style="vertical-align:top;">:</td><td><div></div></td></tr><tr><td style="font-weight:bold;vertical-align:top;">domain</td><td style="vertical-align:top;">:</td><td><div></div></td></tr><tr><td style="font-weight:bold;vertical-align:top;">expires</td><td style="vertical-align:top;">:</td><td><div></div></td></tr><tr><td style="font-weight:bold;vertical-align:top;">httponly</td><td style="vertical-align:top;">:</td><td><div></div></td></tr><tr><td style="font-weight:bold;vertical-align:top;">max-age</td><td style="vertical-align:top;">:</td><td><div></div></td></tr><tr><td style="font-weight:bold;vertical-align:top;">path</td><td style="vertical-align:top;">:</td><td><div>/</div></td></tr><tr><td style="font-weight:bold;vertical-align:top;">secure</td><td style="vertical-align:top;">:</td><td><div></div></td></tr><tr><td style="font-weight:bold;vertical-align:top;">version</td><td style="vertical-align:top;">:</td><td><div></div></td></tr></table></div></td></tr></table></div></td></tr><tr><td style="font-weight:bold;vertical-align:top;">delimiters</td><td style="vertical-align:top;">:</td><td><div><table><tr><td><div>{{</div></td></tr><tr><td><div>}}</div></td></tr></table></div></td></tr><tr><td style="font-weight:bold;vertical-align:top;">files</td><td style="vertical-align:top;">:</td><td><div><table></table></div></td></tr><tr><td style="font-weight:bold;vertical-align:top;">flash</td><td style="vertical-align:top;">:</td><td><div>Welcome to web2py!</div></td></tr><tr><td style="font-weight:bold;vertical-align:top;">generic_patterns</td><td style="vertical-align:top;">:</td><td><div><table><tr><td><div>*</div></td></tr></table></div></td></tr><tr><td style="font-weight:bold;vertical-align:top;">google_analytics_id</td><td style="vertical-align:top;">:</td><td><div>None</div></td></tr><tr><td style="font-weight:bold;vertical-align:top;">headers</td><td style="vertical-align:top;">:</td><td><div><table><tr><td style="font-weight:bold;vertical-align:top;">X-Powered-By</td><td style="vertical-align:top;">:</td><td><div>web2py</div></td></tr></table></div></td></tr><tr><td style="font-weight:bold;vertical-align:top;">logo</td><td style="vertical-align:top;">:</td><td><div><a class="brand" href="http://www.web2py.com/"><b>web<span>2</span>py</b>&trade;&nbsp;</a></div></td></tr><tr><td style="font-weight:bold;vertical-align:top;">menu</td><td style="vertical-align:top;">:</td><td><div><table><tr><td><div><table><tr><td><div>Home</div></td></tr><tr><td><div>False</div></td></tr><tr><td><div>/distribuidora/default/index</div></td></tr><tr><td><div><table></table></div></td></tr></table></div></td></tr><tr><td><div><table><tr><td><div><span class="highlighted">web2py</span></div></td></tr><tr><td><div>False</div></td></tr><tr><td><div>http://web2py.com</div></td></tr><tr><td><div><table><tr><td><div><table><tr><td><div>My Sites</div></td></tr><tr><td><div>False</div></td></tr><tr><td><div>/admin/default/site</div></td></tr></table></div></td></tr><tr><td><div><table><tr><td><div>This App</div></td></tr><tr><td><div>False</div></td></tr><tr><td><div>/admin/default/design/distribuidora</div></td></tr><tr><td><div>[(&lt;lazyT &#x27;Controller&#x27;&gt;, False, &#x27;/admin/default/edit/distribuidora/controllers/default.py&#x27;), (&lt;lazyT &#x27;View&#x27;&gt;, False, &#x27;/admin/default/edit/distribuidora/views/default/index.html&#x27;), (&lt;lazyT &#x27;Layout&#x27;&gt;, False, &#x27;/admin/default/edit/distribuidora/views/layout.html&#x27;), (&lt;lazyT &#x27;Stylesheet&#x27;&gt;, False, &#x27;/admin/default/edit/distribuidora/static/css/web2py.css&#x27;), (&lt;lazyT &#x27;DB Model&#x27;&gt;, False, &#x27;/admin/default/edit/distribuidora/models/db.py&#x27;), (&lt;lazyT &#x27;Menu Model&#x27;&gt;, False, &#x27;/admin/default/edit/distribuidora/models/menu.py&#x27;), (&lt;lazyT &#x27;Database&#x27;&gt;, False, &#x27;/distribuidora/appadmin/index&#x27;), (&lt;lazyT &#x27;Errors&#x27;&gt;, False, &#x27;/admin/default/errors/distribuidora&#x27;), (&lt;lazyT &#x27;About&#x27;&gt;, False, &#x27;/admin/default/about/distribuidora&#x27;)]</div></td></tr></table></div></td></tr><tr><td><div><table><tr><td><div>web2py.com</div></td></tr><tr><td><div>False</div></td></tr><tr><td><div>http://www.web2py.com</div></td></tr><tr><td><div>[(&lt;lazyT &#x27;Download&#x27;&gt;, False, &#x27;http://www.web2py.com/examples/default/download&#x27;), (&lt;lazyT &#x27;Support&#x27;&gt;, False, &#x27;http://www.web2py.com/examples/default/support&#x27;), (&lt;lazyT &#x27;Demo&#x27;&gt;, False, &#x27;http://web2py.com/demo_admin&#x27;), (&lt;lazyT &#x27;Quick Examples&#x27;&gt;, False, &#x27;http://web2py.com/examples/default/examples&#x27;), (&lt;lazyT &#x27;FAQ&#x27;&gt;, False, &#x27;http://web2py.com/AlterEgo&#x27;), (&lt;lazyT &#x27;Videos&#x27;&gt;, False, &#x27;http://www.web2py.com/examples/default/videos/&#x27;), (&lt;lazyT &#x27;Free Applications&#x27;&gt;, False, &#x27;http://web2py.com/appliances&#x27;), (&lt;lazyT &#x27;Plugins&#x27;&gt;, False, &#x27;http://web2py.com/plugins&#x27;), (&lt;lazyT &#x27;Layouts&#x27;&gt;, False, &#x27;http://web2py.com/layouts&#x27;), (&lt;lazyT &#x27;Recipes&#x27;&gt;, False, &#x27;http://web2pyslices.com/&#x27;), (&lt;lazyT &#x27;Semantic&#x27;&gt;, False, &#x27;http://web2py.com/semantic&#x27;)]</div></td></tr></table></div></td></tr><tr><td><div><table><tr><td><div>Documentation</div></td></tr><tr><td><div>False</div></td></tr><tr><td><div>http://www.web2py.com/book</div></td></tr><tr><td><div>[(&lt;lazyT &#x27;Preface&#x27;&gt;, False, &#x27;http://www.web2py.com/book/default/chapter/00&#x27;), (&lt;lazyT &#x27;Introduction&#x27;&gt;, False, &#x27;http://www.web2py.com/book/default/chapter/01&#x27;), (&lt;lazyT &#x27;Python&#x27;&gt;, False, &#x27;http://www.web2py.com/book/default/chapter/02&#x27;), (&lt;lazyT &#x27;Overview&#x27;&gt;, False, &#x27;http://www.web2py.com/book/default/chapter/03&#x27;), (&lt;lazyT &#x27;The Core&#x27;&gt;, False, &#x27;http://www.web2py.com/book/default/chapter/04&#x27;), (&lt;lazyT &#x27;The Views&#x27;&gt;, False, &#x27;http://www.web2py.com/book/default/chapter/05&#x27;), (&lt;lazyT &#x27;Database&#x27;&gt;, False, &#x27;http://www.web2py.com/book/default/chapter/06&#x27;), (&lt;lazyT &#x27;Forms and Validators&#x27;&gt;, False, &#x27;http://www.web2py.com/book/default/chapter/07&#x27;), (&lt;lazyT &#x27;Email and SMS&#x27;&gt;, False, &#x27;http://www.web2py.com/book/default/chapter/08&#x27;), (&lt;lazyT &#x27;Access Control&#x27;&gt;, False, &#x27;http://www.web2py.com/book/default/chapter/09&#x27;), (&lt;lazyT &#x27;Services&#x27;&gt;, False, &#x27;http://www.web2py.com/book/default/chapter/10&#x27;), (&lt;lazyT &#x27;Ajax Recipes&#x27;&gt;, False, &#x27;http://www.web2py.com/book/default/chapter/11&#x27;), (&lt;lazyT &#x27;Components and Plugins&#x27;&gt;, False, &#x27;http://www.web2py.com/book/default/chapter/12&#x27;), (&lt;lazyT &#x27;Deployment Recipes&#x27;&gt;, False, &#x27;http://www.web2py.com/book/default/chapter/13&#x27;), (&lt;lazyT &#x27;Other Recipes&#x27;&gt;, False, &#x27;http://www.web2py.com/book/default/chapter/14&#x27;), (&lt;lazyT &#x27;Buy this book&#x27;&gt;, False, &#x27;http://stores.lulu.com/web2py&#x27;)]</div></td></tr></table></div></td></tr><tr><td><div><table><tr><td><div>Community</div></td></tr><tr><td><div>False</div></td></tr><tr><td><div>None</div></td></tr><tr><td><div>[(&lt;lazyT &#x27;Groups&#x27;&gt;, False, &#x27;http://www.web2py.com/examples/default/usergroups&#x27;), (&lt;lazyT &#x27;Twitter&#x27;&gt;, False, &#x27;http://twitter.com/web2py&#x27;), (&lt;lazyT &#x27;Live Chat&#x27;&gt;, False, &#x27;http://webchat.freenode.net/?channels=web2py&#x27;)]</div></td></tr></table></div></td></tr><tr><td><div><table><tr><td><div>Plugins</div></td></tr><tr><td><div>False</div></td></tr><tr><td><div>None</div></td></tr><tr><td><div>[(&#x27;plugin_wiki&#x27;, False, &#x27;http://web2py.com/examples/default/download&#x27;), (&lt;lazyT &#x27;Other Plugins&#x27;&gt;, False, &#x27;http://web2py.com/plugins&#x27;), (&lt;lazyT &#x27;Layout Plugins&#x27;&gt;, False, &#x27;http://web2py.com/layouts&#x27;)]</div></td></tr></table></div></td></tr></table></div></td></tr></table></div></td></tr></table></div></td></tr><tr><td style="font-weight:bold;vertical-align:top;">meta</td><td style="vertical-align:top;">:</td><td><div><table><tr><td style="font-weight:bold;vertical-align:top;">author</td><td style="vertical-align:top;">:</td><td><div>Your Name &lt;you@example.com&gt;</div></td></tr><tr><td style="font-weight:bold;vertical-align:top;">generator</td><td style="vertical-align:top;">:</td><td><div>Web2py Web Framework</div></td></tr><tr><td style="font-weight:bold;vertical-align:top;">keywords</td><td style="vertical-align:top;">:</td><td><div>web2py, python, framework</div></td></tr></table></div></td></tr><tr><td style="font-weight:bold;vertical-align:top;">models_to_run</td><td style="vertical-align:top;">:</td><td><div><table><tr><td><div>^\\w+\\.py$</div></td></tr><tr><td><div>^default/\\w+\\.py$</div></td></tr><tr><td><div>^default/index/\\w+\\.py$</div></td></tr></table></div></td></tr><tr><td style="font-weight:bold;vertical-align:top;">postprocessing</td><td style="vertical-align:top;">:</td><td><div><table></table></div></td></tr><tr><td style="font-weight:bold;vertical-align:top;">session_client</td><td style="vertical-align:top;">:</td><td><div>127.0.0.1</div></td></tr><tr><td style="font-weight:bold;vertical-align:top;">session_cookie_compression_level</td><td style="vertical-align:top;">:</td><td><div>None</div></td></tr><tr><td style="font-weight:bold;vertical-align:top;">session_cookie_expires</td><td style="vertical-align:top;">:</td><td><div>None</div></td></tr><tr><td style="font-weight:bold;vertical-align:top;">session_cookie_key</td><td style="vertical-align:top;">:</td><td><div>None</div></td></tr><tr><td style="font-weight:bold;vertical-align:top;">session_data_name</td><td style="vertical-align:top;">:</td><td><div>session_data_distribuidora</div></td></tr><tr><td style="font-weight:bold;vertical-align:top;">session_file</td><td style="vertical-align:top;">:</td><td><div>None</div></td></tr><tr><td style="font-weight:bold;vertical-align:top;">session_filename</td><td style="vertical-align:top;">:</td><td><div>/home/marco/trabajo/experimental/web2py/applications/distribuidora/sessions/127.0.0.1-5dfe44b4-6370-4a65-b95a-ff6dc6a14661</div></td></tr><tr><td style="font-weight:bold;vertical-align:top;">session_hash</td><td style="vertical-align:top;">:</td><td><div>106f4c22ca06cc343e42b73a0d8492f6</div></td></tr><tr><td style="font-weight:bold;vertical-align:top;">session_id</td><td style="vertical-align:top;">:</td><td><div>127.0.0.1-5dfe44b4-6370-4a65-b95a-ff6dc6a14661</div></td></tr><tr><td style="font-weight:bold;vertical-align:top;">session_id_name</td><td style="vertical-align:top;">:</td><td><div>session_id_distribuidora</div></td></tr><tr><td style="font-weight:bold;vertical-align:top;">session_masterapp</td><td style="vertical-align:top;">:</td><td><div>distribuidora</div></td></tr><tr><td style="font-weight:bold;vertical-align:top;">session_new</td><td style="vertical-align:top;">:</td><td><div>True</div></td></tr><tr><td style="font-weight:bold;vertical-align:top;">session_storage_type</td><td style="vertical-align:top;">:</td><td><div>file</div></td></tr><tr><td style="font-weight:bold;vertical-align:top;">status</td><td style="vertical-align:top;">:</td><td><div>200</div></td></tr><tr><td style="font-weight:bold;vertical-align:top;">subtitle</td><td style="vertical-align:top;">:</td><td><div></div></td></tr><tr><td style="font-weight:bold;vertical-align:top;">title</td><td style="vertical-align:top;">:</td><td><div>Distribuidora</div></td></tr><tr><td style="font-weight:bold;vertical-align:top;">view</td><td style="vertical-align:top;">:</td><td><div>default/index.html</div></td></tr></table></div>'
tRp109
sS'locals'
p110
(dp111
S'Service'
p112
S"<class 'gluon.tools.Service'>"
p113
sS'OBJECT'
p114
S"<class 'gluon.html.OBJECT'>"
p115
sS'SQLDB'
p116
S"<class 'gluon.dal.DAL'>"
p117
sg102
S'<Storage {}>'
p118
sS'LINK'
p119
S"<class 'gluon.html.LINK'>"
p120
sS'BR'
p121
S"<class 'gluon.html.BR'>"
p122
sS'local_import'
p123
S'<function <lambda>>'
p124
sS'OPTGROUP'
p125
S"<class 'gluon.html.OPTGROUP'>"
p126
sS'__package__'
p127
S'None'
p128
sS'PRE'
p129
S"<class 'gluon.html.PRE'>"
p130
sS'IS_INT_IN_RANGE'
p131
S"<class 'gluon.validators.IS_INT_IN_RANGE'>"
p132
sS'left_sidebar_enabled'
p133
S'False'
p134
sS'IS_LOWER'
p135
S"<class 'gluon.validators.IS_LOWER'>"
p136
sS'IS_STRONG'
p137
S"<class 'gluon.validators.IS_STRONG'>"
p138
sS'cache'
p139
S'<gluon.cache.Cache object>'
p140
sS'IS_IN_DB'
p141
S"<class 'gluon.validators.IS_IN_DB'>"
p142
sS'TAG'
p143
S'<gluon.html.__TAG__ object>'
p144
sS'SQLField'
p145
S"<class 'gluon.dal.Field'>"
p146
sS'mail'
p147
S'<gluon.tools.Mail object>'
p148
sS'BODY'
p149
S"<class 'gluon.html.BODY'>"
p150
sS'IS_DATE_IN_RANGE'
p151
S"<class 'gluon.validators.IS_DATE_IN_RANGE'>"
p152
sS'IFRAME'
p153
S"<class 'gluon.html.IFRAME'>"
p154
sS'URL'
p155
S'<function URL>'
p156
sS'__file__'
p157
S"'/home/marco/trabajo/experimental/web2py/applications/distribuidora/views/default/index.html'"
p158
sS'db'
p159
S'<DAL uri="sqlite://storage.sqlite">'
p160
sS'auth'
p161
S'<gluon.tools.Auth object>'
p162
sS'P'
S"<class 'gluon.html.P'>"
p163
sS'TFOOT'
p164
S"<class 'gluon.html.TFOOT'>"
p165
sS'XHTML'
p166
S"<class 'gluon.html.XHTML'>"
p167
sS'ON'
p168
S'True'
p169
sS'OL'
p170
S"<class 'gluon.html.OL'>"
p171
sS'TEXTAREA'
p172
S"<class 'gluon.html.TEXTAREA'>"
p173
sS'MENU'
p174
S"<class 'gluon.html.MENU'>"
p175
sS'IS_IMAGE'
p176
S"<class 'gluon.validators.IS_IMAGE'>"
p177
sS'EM'
p178
S"<class 'gluon.html.EM'>"
p179
sS'CODE'
p180
S"<class 'gluon.html.CODE'>"
p181
sS'HTTP'
p182
S"<class 'gluon.http.HTTP'>"
p183
sS'HR'
p184
S"<class 'gluon.html.HR'>"
p185
sS'IS_DATETIME'
p186
S"<class 'gluon.validators.IS_DATETIME'>"
p187
sS'STYLE'
p188
S"<class 'gluon.html.STYLE'>"
p189
sS'LABEL'
p190
S"<class 'gluon.html.LABEL'>"
p191
sS'CLEANUP'
p192
S"<class 'gluon.validators.CLEANUP'>"
p193
sS'plugins'
p194
S'<gluon.tools.PluginManager object>'
p195
sS'SELECT'
p196
S"<class 'gluon.html.SELECT'>"
p197
sS'use_janrain'
p198
S'<function use_janrain>'
p199
sS'CENTER'
p200
S"<class 'gluon.html.CENTER'>"
p201
sS'prettydate'
p202
S'<function prettydate>'
p203
sS'Crud'
p204
S"<class 'gluon.tools.Crud'>"
p205
sS'Auth'
p206
S"<class 'gluon.tools.Auth'>"
p207
sS'DEVELOPMENT_MENU'
p208
g169
sS'__builtins__'
p209
S"{'ArithmeticError': <type 'exceptions.ArithmeticError'>, 'AssertionError': <type 'exceptions.AssertionError'>, 'AttributeError': <type 'exceptions.AttributeError'>, 'BaseException': <type 'exceptions.BaseException'>, 'BufferError': <type 'exceptions.BufferError'>, 'BytesWarning': <type 'exceptions.BytesWarning'>, 'DeprecationWarning': <type 'exceptions.DeprecationWarning'>, 'EOFError': <type 'exceptions.EOFError'>, 'Ellipsis': Ellipsis, 'EnvironmentError': <type 'exceptions.EnvironmentError'>, ...}"
p210
sS'HTML'
p211
S"<class 'gluon.html.HTML'>"
p212
sS'SQLFORM'
p213
S"<class 'gluon.sqlhtml.SQLFORM'>"
p214
sS'LOAD'
p215
S'<function LOAD>'
p216
sS'redirect'
p217
S'<function redirect>'
p218
sS'FIELDSET'
p219
S"<class 'gluon.html.FIELDSET'>"
p220
sS'IS_EQUAL_TO'
p221
S"<class 'gluon.validators.IS_EQUAL_TO'>"
p222
sS'embed64'
p223
S'<function embed64>'
p224
sS'IS_LIST_OF'
p225
S"<class 'gluon.validators.IS_LIST_OF'>"
p226
sS'INPUT'
p227
S"<class 'gluon.html.INPUT'>"
p228
sS'EMBED'
p229
S"<class 'gluon.html.EMBED'>"
p230
sS'_'
S'<function _>'
p231
sS'H2'
p232
S"<class 'gluon.html.H2'>"
p233
sS'H3'
p234
S"<class 'gluon.html.H3'>"
p235
sS'BUTTON'
p236
S"<class 'gluon.html.BUTTON'>"
p237
sS'H1'
p238
S"<class 'gluon.html.H1'>"
p239
sS'H6'
p240
S"<class 'gluon.html.H6'>"
p241
sS'H4'
p242
S"<class 'gluon.html.H4'>"
p243
sS'H5'
p244
S"<class 'gluon.html.H5'>"
p245
sS'UL'
p246
S"<class 'gluon.html.UL'>"
p247
sS'IS_UPPER'
p248
S"<class 'gluon.validators.IS_UPPER'>"
p249
sS'xmlescape'
p250
S'<function xmlescape>'
p251
sS'IS_TIME'
p252
S"<class 'gluon.validators.IS_TIME'>"
p253
sS'OPTION'
p254
S"<class 'gluon.html.OPTION'>"
p255
sS'TITLE'
p256
S"<class 'gluon.html.TITLE'>"
p257
sS'CRYPT'
p258
S"<class 'gluon.validators.CRYPT'>"
p259
sS'IS_EMPTY_OR'
p260
S"<class 'gluon.validators.IS_EMPTY_OR'>"
p261
sS'MARKMIN'
p262
S"<class 'gluon.html.MARKMIN'>"
p263
sS'__name__'
p264
S"'__restricted__'"
p265
sS'message'
p266
S"<lazyT 'Hello World'>"
p267
sS'STRONG'
p268
S"<class 'gluon.html.STRONG'>"
p269
sS'COL'
p270
S"<class 'gluon.html.COL'>"
p271
sS'service'
p272
S'<gluon.tools.Service object>'
p273
sS'SCRIPT'
p274
S"<class 'gluon.html.SCRIPT'>"
p275
sS'TABLE'
p276
S"<class 'gluon.html.TABLE'>"
p277
sS'IS_IPV4'
p278
S"<class 'gluon.validators.IS_IPV4'>"
p279
sS'IS_LENGTH'
p280
S"<class 'gluon.validators.IS_LENGTH'>"
p281
sS'IS_IPV6'
p282
S"<class 'gluon.validators.IS_IPV6'>"
p283
sS'XML'
p284
S"<class 'gluon.html.XML'>"
p285
sS'B'
S"<class 'gluon.html.B'>"
p286
sS'IMG'
p287
S"<class 'gluon.html.IMG'>"
p288
sS'SQLTABLE'
p289
S"<class 'gluon.sqlhtml.SQLTABLE'>"
p290
sS'IS_MATCH'
p291
S"<class 'gluon.validators.IS_MATCH'>"
p292
sS'IS_ALPHANUMERIC'
p293
S"<class 'gluon.validators.IS_ALPHANUMERIC'>"
p294
sS'SPAN'
p295
S"<class 'gluon.html.SPAN'>"
p296
sS'IS_JSON'
p297
S"<class 'gluon.validators.IS_JSON'>"
p298
sS'IS_IPADDRESS'
p299
S"<class 'gluon.validators.IS_IPADDRESS'>"
p300
sS'IS_SLUG'
p301
S"<class 'gluon.validators.IS_SLUG'>"
p302
sS'BEAUTIFY'
p303
S"<class 'gluon.html.BEAUTIFY'>"
p304
sS'META'
p305
S"<class 'gluon.html.META'>"
p306
sS'IS_DATE'
p307
S"<class 'gluon.validators.IS_DATE'>"
p308
sS'IS_EMAIL'
p309
S"<class 'gluon.validators.IS_EMAIL'>"
p310
sS'IS_NOT_EMPTY'
p311
S"<class 'gluon.validators.IS_NOT_EMPTY'>"
p312
sS'IS_FLOAT_IN_RANGE'
p313
S"<class 'gluon.validators.IS_FLOAT_IN_RANGE'>"
p314
sS'TBODY'
p315
S"<class 'gluon.html.TBODY'>"
p316
sS'CAT'
p317
S"<class 'gluon.html.CAT'>"
p318
sS'Field'
p319
S"<class 'gluon.dal.Field'>"
p320
sS'IS_LIST_OF_EMAILS'
p321
S"<class 'gluon.validators.IS_LIST_OF_EMAILS'>"
p322
sS'DIV'
p323
S"<class 'gluon.html.DIV'>"
p324
sS'LEGEND'
p325
S"<class 'gluon.html.LEGEND'>"
p326
sS'COLGROUP'
p327
S"<class 'gluon.html.COLGROUP'>"
p328
sS'DAL'
p329
S"<class 'gluon.dal.DAL'>"
p330
sS'TT'
p331
S"<class 'gluon.html.TT'>"
p332
sS'TR'
p333
S"<class 'gluon.html.TR'>"
p334
sS'LI'
p335
S"<class 'gluon.html.LI'>"
p336
sS'right_sidebar_enabled'
p337
g169
sS'TH'
p338
S"<class 'gluon.html.TH'>"
p339
sS'TD'
p340
S"<class 'gluon.html.TD'>"
p341
sS'PluginManager'
p342
S"<class 'gluon.tools.PluginManager'>"
p343
sS'IS_URL'
p344
S"<class 'gluon.validators.IS_URL'>"
p345
sS'A'
S"<class 'gluon.html.A'>"
p346
sS'HEAD'
p347
S"<class 'gluon.html.HEAD'>"
p348
sS'IS_DATETIME_IN_RANGE'
p349
S"<class 'gluon.validators.IS_DATETIME_IN_RANGE'>"
p350
sS'FORM'
p351
S"<class 'gluon.html.FORM'>"
p352
sS'I'
S"<class 'gluon.html.I'>"
p353
sS'crud'
p354
S'<gluon.tools.Crud object>'
p355
sS'IS_NOT_IN_DB'
p356
S"<class 'gluon.validators.IS_NOT_IN_DB'>"
p357
sg108
S"<Storage {'body': <cStringIO.StringO object at 0...t 0x7fb8040ffa28>, 'view': 'default/index.html'}>"
p358
sS'THEAD'
p359
S"<class 'gluon.html.THEAD'>"
p360
sS'ANY_OF'
p361
S"<class 'gluon.validators.ANY_OF'>"
p362
sS'IS_NULL_OR'
p363
S"<class 'gluon.validators.IS_EMPTY_OR'>"
p364
sg56
S"<Storage {'_vars': None, 'function': 'index', 'c...xperimental/web2py/applications/distribuidora/'}>"
p365
sS'IS_EXPR'
p366
S"<class 'gluon.validators.IS_EXPR'>"
p367
sS'T'
S'<gluon.languages.translator object>'
p368
sS'IS_IN_SET'
p369
S"<class 'gluon.validators.IS_IN_SET'>"
p370
sS'IS_UPLOAD_FILENAME'
p371
S"<class 'gluon.validators.IS_UPLOAD_FILENAME'>"
p372
sS'IS_DECIMAL_IN_RANGE'
p373
S"<class 'gluon.validators.IS_DECIMAL_IN_RANGE'>"
p374
sssS'traceback'
p375
S'Traceback (most recent call last):\n  File "/home/marco/trabajo/experimental/web2py/gluon/restricted.py", line 221, in restricted\n    exec ccode in environment\n  File "/home/marco/trabajo/experimental/web2py/applications/distribuidora/views/default/index.html", line 4, in <module>\n    {{if \'message\' in globals():}}\nNameError: name \'images\' is not defined\n'
p376
s.