(dp1
S'output'
p2
S"<type 'exceptions.NameError'> name 'imagenes' is not defined"
p3
sS'layer'
p4
S'/home/marco/trabajo/experimental/web2py/applications/distribuidora/views/default/index.html'
p5
sS'code'
p6
S'response.write(\'<!DOCTYPE html>\\n<html lang="en">\\n  <head>\\n\\n    <!-- start: Meta -->\\n    <meta charset="utf-8">\\n    <title>\', escape=False)\nresponse.write(response.title or \'\')\nresponse.write(\'</title> \\n    <meta name="description" content="FreeME:Bootstrap Theme"/>\\n    <meta name="keywords" content="Template, Theme, web, html5, css3" />\\n    <meta name="author" content="\\xc5\\x81ukasz Holeczek from creativeLabs"/>\\n    <!-- end: Meta -->\\n    \\n    <!-- start: Mobile Specific -->\\n    <meta name="viewport" content="width=device-width, initial-scale=1, maximum-scale=1">\\n    <!-- end: Mobile Specific -->\\n    \\n    <!-- start: Facebook Open Graph -->\\n    <meta property="og:title" content=""/>\\n    <meta property="og:description" content=""/>\\n    <meta property="og:type" content=""/>\\n    <meta property="og:url" content=""/>\\n    <meta property="og:image" content=""/>\\n    <!-- end: Facebook Open Graph -->\\n    <link rel="shortcut icon" href="\', escape=False)\nresponse.write(URL(\'static\',\'images/favicon.ico\'))\nresponse.write(\'" />\\n    \\n    <!-- start: CSS -->\\n    <link href="\', escape=False)\nresponse.write(URL(\'static\',\'css/bootstrap.css\'))\nresponse.write(\'" rel="stylesheet">\\n    <link href="\', escape=False)\nresponse.write(URL(\'static\',\'css/bootstrap-responsive.css\'))\nresponse.write(\'" rel="stylesheet">\\n    <link href="\', escape=False)\nresponse.write(URL(\'static\',\'custom/css/style.css\'))\nresponse.write(\'" rel="stylesheet">\\n    <link href="\', escape=False)\nresponse.write(URL(\'static\',\'custom/css/xignus.css\'))\nresponse.write(\'" rel="stylesheet">\\n    <link href="\', escape=False)\nresponse.write(URL(\'static\',\'css/web2py-bootstrap.css\'))\nresponse.write(\'" rel="stylesheet">\\n    <link href="\', escape=False)\nresponse.write(URL(\'static\',\'css/web2py.css\'))\nresponse.write(\'" rel="stylesheet">\\n    <link rel="stylesheet" type="text/css" href="http://fonts.googleapis.com/css?family=Droid+Sans:400,700">\\n    <link rel="stylesheet" type="text/css" href="http://fonts.googleapis.com/css?family=Droid+Serif">\\n    <link rel="stylesheet" type="text/css" href="http://fonts.googleapis.com/css?family=Boogaloo">\\n    <link rel="stylesheet" type="text/css" href="http://fonts.googleapis.com/css?family=Economica:700,400italic">\\n    <!-- end: CSS -->\\n    <script src="\', escape=False)\nresponse.write(URL(\'static\',\'js/jquery.js\'))\nresponse.write(\'"></script>\\n    <!-- Le HTML5 shim, for IE6-8 support of HTML5 elements -->\\n    <!--[if lt IE 9]>\\n\\t<script src="http://html5shim.googlecode.com/svn/trunk/html5.js"></script>\\n\\t<![endif]-->\\n\\n  </head>\\n  <body>\\n    \\n    <!--start: Wrapper -->\\n    <div id="wrapper">\\n      <!--start: Container -->\\n      <div class="container">\\n\\t<!--start: Header -->\\n\\t<header>\\n\\t  <!--start: Row -->\\n\\t  <div class="row">\\n\\t    <!--start: Logo -->\\n\\t    <div class="logo span4">\\n\\t      \', escape=False)\nresponse.write(response.logo or \'\')\nresponse.write(\'  \', escape=False)\nresponse.write(response.subtitle)\nresponse.write(\'\\n\\t    </div>\\n\\t    <!--end: Logo -->\\n\\t    \\n\\t    <!--start: Social Links -->\\n\\t    <div class="span8">\\n\\t      <div id="social-links">\\n\\t\\t<ul class="social-small-grid">\\n\\t\\t  <li>\\n\\t\\t    <div class="social-small-item">\\t\\t\\t\\t\\n\\t\\t      <div class="social-small-info-wrap">\\n\\t\\t\\t<div class="social-small-info">\\n\\t\\t\\t  <div class="social-small-info-front social-small-facebook">\\n\\t\\t\\t    <a href="http://facebook.com"></a>\\n\\t\\t\\t  </div>\\n\\t\\t\\t  <div class="social-small-info-back social-small-facebook-hover">\\n\\t\\t\\t    <a href="http://facebook.com"></a>\\n\\t\\t\\t  </div>\\t\\n\\t\\t\\t</div>\\n\\t\\t      </div>\\n\\t\\t    </div>\\n\\t\\t  </li>\\n\\t\\t</ul>\\n\\t      </div>\\n\\t    </div>\\n\\t    <!--end: Social Links -->\\n\\t    \\n\\t  </div>\\n\\t  <!--end: Row -->\\n\\t  \\n\\t</header>\\n\\t<!--end: Header-->\\n\\t\\n\\t<!--start: Navigation-->\\t\\n\\t<div class="navbar navbar-inverse">\\n    \\t  <div class="navbar-inner">\\n            <div class="container pull-right">\\n\\t      \', escape=False)\nis_mobile=request.user_agent().is_mobile\nresponse.write(\'\\n              <a class="btn btn-navbar" data-toggle="collapse" data-target=".nav-collapse">\\n            \\t<span class="icon-bar"></span>\\n            \\t<span class="icon-bar"></span>\\n            \\t<span class="icon-bar"></span>\\n              </a>\\n\\t      <div class="\', escape=False)\nresponse.write(\'nav-collapse\' if is_mobile else \'nav\')\nresponse.write(\'">\\n\\t\\t\', escape=False)\nif response.menu:\n    response.write(\'\\n\\t\\t\', escape=False)\n    response.write(MENU(response.menu, _class=\'mobile-menu navbar\' if is_mobile else \'nav\',mobile=is_mobile,li_class=\'dropdown\',ul_class=\'dropdown-menu\'))\n    response.write(\'\\n\\t\\t\', escape=False)\n    pass\nresponse.write(\'\\n\\n\\t\\t<!-- MODAL FOR CONTACT -->\\n\\t\\t<!-- Modal -->\\n\\t\\t<div class="modal fade" id="myModal" tabindex="-1" role="dialog" aria-labelledby="myModalLabel" aria-hidden="true">\\n\\t\\t  <div class="modal-dialog">\\n\\t\\t    <div class="modal-content">\\n\\t\\t      <div class="modal-header">\\n\\t\\t\\t<button type="button" class="close" data-dismiss="modal" aria-hidden="true">&times;</button>\\n\\t\\t\\t<h4 class="modal-title" id="myModalLabel">Contactanos</h4>\\n\\t\\t      </div>\\n\\t\\t      <div class="modal-body">\\n\\t\\t\\t<div class="row centered">\\n\\t\\t\\t  <div>\\n\\t\\t\\t    <p>idsd</p>\\n\\t\\t\\t  </div>\\n\\t\\t\\t  <div class="col-md-12"><p> info@xignus.com.ar o al +54 351 6485781</p></div>\\n\\t\\t\\t</div>\\n\\t\\t      </div>\\n\\t\\t    </div><!-- /.modal-content -->\\n\\t\\t  </div><!-- /.modal-dialog -->\\n\\t\\t</div><!-- /.modal -->\\n\\n              </div>\\n            </div>\\n      \\t  </div>\\n    \\t</div>\\n\\t<!--end: Navigation-->\\n\\t\\n      </div>\\n      <!--start: Container -->\\n      <div class="container">\\n\\t\', escape=False)\nresponse.write(\'\\n\\n\\n<!-- start: Flexslider -->\\n<div class="slider">\\n\\n  <div class="flexslider">\\n    <ul class="slides">\\n\\n      \', escape=False)\nfor imagen in portada:\n    response.write(\'\\n      <li>\\n\\t<img src="\', escape=False)\n    response.write(URL(\'download\',args=imagen.imagen))\n    response.write(\'" alt="" />\\n\\t<div class="slide-caption hidden-phone">\\n\\t  <h3>\', escape=False)\n    response.write(imagenes.titulo.capitalize)\n    response.write(\'</h3>\\n\\t  <p>\', escape=False)\n    response.write(imagenes.descripcion)\n    response.write(\'</p>\\n\\t</div>\\n      </li>\\n\\t\\n      \', escape=False)\n    pass\nresponse.write(\'\\n      <li>\\n\\t<img src="/distribuidora/static/custom/img/slider/slider1.jpg" alt="" />\\n\\t<div class="slide-caption n hidden-phone">\\n\\t  <h3>This is a caption</h3>\\n\\t  <p>\\n\\t    Lorem ipsum dolor sit amet, consectetuer adipiscing elit, sed diam nonummy nibh euismod tincidunt ut laoreet dolore magna aliquam erat volutpat. Ut wisi enim ad minim veniam, quis nostrud exerci tation ullamcorper suscipit lobortis nisl ut aliquip ex ea commodo consequat.\\n\\t  </p>\\n\\t</div>\\n      </li>\\n\\n      <li>\\n\\t<img src="/distribuidora/static/custom/img/slider/slider2.jpg" alt="" />\\n\\t<div class="slide-caption hidden-phone">\\n\\t  <h3>This is a caption</h3>\\n\\t  <p>\\n\\t    Lorem ipsum dolor sit amet, consectetuer adipiscing elit, sed diam nonummy nibh euismod tincidunt ut laoreet dolore magna aliquam erat volutpat. Ut wisi enim ad minim veniam, quis nostrud exerci tation ullamcorper suscipit lobortis nisl ut aliquip ex ea commodo consequat.\\n\\t  </p>\\n\\t</div>\\n      </li>\\n\\n      <li>\\n\\t<img src="/distribuidora/static/custom/img/slider/slider3.jpg" alt="" />\\n      </li>\\n\\n    </ul>\\n  </div>\\n\\n</div>\\n<!-- end: Flexslider -->\\n\\n<!-- start: Hero Unit - Main hero unit for a primary marketing message or call to action -->\\n<div class="hero-unit">\\n  <p>\\n    This is a template for a simple marketing or informational website. It includes a large callout called the hero unit and three supporting pieces of content. Use it as a starting point to create something more unique.\\n  </p>\\n  <p><a class="btn btn-success btn-large">Learn more &raquo;</a></p>\\n</div>\\n<!-- end: Hero Unit -->\\n\\n<!-- start: Row -->\\n<div class="row">\\n\\n  <div class="span4">\\n    <div class="icons-box">\\n      <i class="ico-ok circle big"></i>\\n      <div class="title"><h3>Easy to use</h3></div>\\n      <p>\\n\\tLorem ipsum dolor sit amet, consectetuer adipiscing elit, sed diam nonummy nibh euismod tincidunt ut laoreet dolore magna aliquam erat volutpat.\\n      </p>\\n      <div class="clear"></div>\\n    </div>\\n  </div>\\n\\n  <div class="span4">\\n    <div class="icons-box">\\n      <i class="ico-ipad circle big"></i>\\n      <div class="title"><h3>Responsive</h3></div>\\n      <p>\\n\\tLorem ipsum dolor sit amet, consectetuer adipiscing elit, sed diam nonummy nibh euismod tincidunt ut laoreet dolore magna aliquam erat volutpat.\\n      </p>\\n      <div class="clear"></div>\\n    </div>\\n  </div>\\n\\n  <div class="span4">\\n    <div class="icons-box">\\n      <i class="ico-heart circle big"></i>\\n      <div class="title"><h3>User friendly</h3></div>\\n      <p>\\n\\tLorem ipsum dolor sit amet, consectetuer adipiscing elit, sed diam nonummy nibh euismod tincidunt ut laoreet dolore magna aliquam erat volutpat.\\n      </p>\\n      <div class="clear"></div>\\n    </div>\\n  </div>\\n\\n</div>\\n<!-- end: Row -->\\n\\n<hr>\\n\\n<!-- start Clients List -->\\t\\n<div class="clients-carousel">\\n\\n  <ul class="slides clients">\\n    <li><img src="/distribuidora/static/custom/img/logos/1.png" alt=""/></li>\\n    <li><img src="/distribuidora/static/custom/img/logos/2.png" alt=""/></li>\\t\\n    <li><img src="/distribuidora/static/custom/img/logos/3.png" alt=""/></li>\\n    <li><img src="/distribuidora/static/custom/img/logos/4.png" alt=""/></li>\\n    <li><img src="/distribuidora/static/custom/img/logos/5.png" alt=""/></li>\\n    <li><img src="/distribuidora/static/custom/img/logos/6.png" alt=""/></li>\\n    <li><img src="/distribuidora/static/custom/img/logos/7.png" alt=""/></li>\\n    <li><img src="/distribuidora/static/custom/img/logos/8.png" alt=""/></li>\\n    <li><img src="/distribuidora/static/custom/img/logos/9.png" alt=""/></li>\\n    <li><img src="/distribuidora/static/custom/img/logos/10.png" alt=""/></li>\\t\\t\\n  </ul>\\n\\n</div>\\n<!-- end Clients List -->\\n\\n<hr>\\n\\n<!-- start: Row -->\\n<div class="row">\\n\\n  <!-- start: Icon Boxes -->\\n  <div class="icons-box-vert-container">\\n\\n    <!-- start: Icon Box Start -->\\n    <div class="span6">\\n      <div class="icons-box-vert">\\n\\t<i class="ico-ok ico-color circle-color big"></i>\\n\\t<div class="icons-box-vert-info">\\n\\t  <h3>Easy to use</h3>\\n\\t  <p>Lorem ipsum dolor sit amet, consectetuer adipiscing elit, sed diam nonummy nibh euismod tincidunt ut laoreet dolore magna aliquam erat volutpat.</p>\\n\\t</div>\\n\\t<div class="clear"></div>\\n      </div>\\n    </div>\\n    <!-- end: Icon Box-->\\n\\n    <!-- start: Icon Box Start -->\\n    <div class="span6">\\n      <div class="icons-box-vert">\\n\\t<i class="ico-cup  ico-white circle-color-full big-color"></i>\\n\\t<div class="icons-box-vert-info">\\n\\t  <h3>Best choice</h3>\\n\\t  <p>Lorem ipsum dolor sit amet, consectetuer adipiscing elit, sed diam nonummy nibh euismod tincidunt ut laoreet dolore magna aliquam erat volutpat.</p>\\n\\t</div>\\n\\t<div class="clear"></div>\\n      </div>\\n    </div>\\n    <!-- end: Icon Box -->\\n\\n    <!-- start: Icon Box Start -->\\n    <div class="span6">\\n      <div class="icons-box-vert">\\n\\t<i class="ico-ipad ico-color circle-color big"></i>\\n\\t<div class="icons-box-vert-info">\\n\\t  <h3>Fully Responsive</h3>\\n\\t  <p>Lorem ipsum dolor sit amet, consectetuer adipiscing elit, sed diam nonummy nibh euismod tincidunt ut laoreet dolore magna aliquam erat volutpat.</p>\\n\\t</div>\\n\\t<div class="clear"></div>\\n      </div>\\n    </div>\\n    <!-- end: Icon Box -->\\n\\n    <!-- start: Icon Box Start -->\\n    <div class="span6">\\n      <div class="icons-box-vert">\\n\\t<i class="ico-thumbs-up  ico-white circle-color-full big-color"></i>\\n\\t<div class="icons-box-vert-info">\\n\\t  <h3>Social Network</h3>\\n\\t  <p>Lorem ipsum dolor sit amet, consectetuer adipiscing elit, sed diam nonummy nibh euismod tincidunt ut laoreet dolore magna aliquam erat volutpat.</p>\\n\\t</div>\\n\\t<div class="clear"></div>\\n      </div>\\n    </div>\\n    <!-- end: Icon Box -->\\n\\n  </div>\\n  <!-- end: Icon Boxes -->\\n  <div class="clear"></div>\\n</div>\\n<!-- end: Row -->\\n\\n<hr>\\n\\n</div>\\n<!--end: Container-->\\n\', escape=False)\nresponse.write(\'\\n      </div>\\n      <!--start: Container -->\\n      <div class="container">\\t\\t\\n      \\t<!-- start: Footer Menu -->\\n\\t<div id="footer-menu" class="hidden-tablet hidden-phone">\\n\\t  <!-- start: Container -->\\n\\t  <div class="container">\\n\\t    <!-- start: Row -->\\n\\t    <div class="row">\\n\\t      <!-- start: Footer Menu Logo -->\\n\\t      <div class="span1">\\n\\t\\t<div id="footer-menu-logo">\\n\\t\\t  \', escape=False)\nresponse.write(response.logo)\nresponse.write(\'\\n\\t\\t</div>\\n\\t      </div>\\n\\t      <!-- end: Footer Menu Logo -->\\n\\n\\t      <!-- start: Footer Menu Links-->\\n\\t      <div class="span10">\\n\\t\\t\\n\\t\\t<div id="footer-menu-links">\\n\\t\\t  <ul id="footer-nav">\\n\\t\\t    <li><a href="index.html">Inicio</a></li>\\n\\t\\t    <li><a href="about.html">Empresa</a></li>\\n\\t\\t    <li><a href="services.html">Productos</a></li>\\n\\t\\t    <li><a href="pricing.html">Servicios</a></li>\\n\\t\\t    <li><a href="contact.html">Contacto</a></li>\\n\\t\\t  </ul>\\n\\t\\t</div>\\n\\t      </div>\\n\\t      <!-- end: Footer Menu Links-->\\n\\n\\t      <!-- start: Footer Menu Back To Top -->\\n\\t      <div class="span1">\\n\\t\\t<div id="footer-menu-back-to-top">\\n\\t\\t  <a href="#"></a>\\n\\t\\t</div>\\n\\t      </div>\\n\\t      <!-- end: Footer Menu Back To Top -->\\n\\t    </div>\\n\\t    <!-- end: Row -->\\n\\t  </div>\\n\\t  <!-- end: Container  -->\\t\\n\\t</div>\\t\\n\\t<!-- end: Footer Menu -->\\n\\n\\t<!-- start: Footer -->\\n\\t<div id="footer">\\n\\t  <!-- start: Container -->\\n\\t  <div class="container">\\n\\t    <!-- start: Row -->\\n\\t    <div class="row">\\n\\t      <!-- start: About -->\\n\\t      <div class="span3">\\n\\t\\t<h3>Sobre nosotros</h3>\\n\\t\\t<p>\\n\\t\\t  Perez & Perez Distribuciones, es una empresa familiar creada en el norte de Argentina, cuyo objetivo es proveer a nuestros clientes productos alimenticios de primera calidad, basados en la calidad y trayectoria de dos de los mas grandes productores de conservas de nuestro pa\\xc3\\xads, Alco y Canale. \\n\\t\\t</p>\\n\\t      </div>\\n\\t      <!-- end: About -->\\n\\n\\t      <!-- start: Photo Stream -->\\n\\t      <div class="span3">\\n\\t\\t<h3>Nuestros productos</h3>\\n\\t\\t<div class="flickr-widget">\\n\\t\\t  <script type="text/javascript" src="http://www.flickr.com/badge_code_v2.gne?count=9&display=latest&size=s&layout=x&source=user&user=29609591@N08"></script>\\n\\t\\t  <div class="clear"></div>\\n\\t\\t</div>\\n\\t\\t\\n\\t      </div>\\n\\t      <!-- end: Photo Stream -->\\n\\t      \\n\\t      <div class="span6">\\n\\t\\t\\n\\t\\t<!-- start: Follow Us -->\\n\\t\\t<h3>Siguenos!</h3>\\n\\t\\t<ul class="social-grid">\\n\\t\\t  <li>\\n\\t\\t    <div class="social-item">\\t\\t\\t\\t\\n\\t\\t      <div class="social-info-wrap">\\n\\t\\t\\t<div class="social-info">\\n\\t\\t\\t  <div class="social-info-front social-facebook">\\n\\t\\t\\t    <a href="http://facebook.com"></a>\\n\\t\\t\\t  </div>\\n\\t\\t\\t  <div class="social-info-back social-facebook-hover">\\n\\t\\t\\t    <a href="http://facebook.com"></a>\\n\\t\\t\\t  </div>\\n\\t\\t\\t</div>\\n\\t\\t      </div>\\n\\t\\t    </div>\\n\\t\\t  </li>\\n\\t\\t</ul>\\n\\t\\t<!-- end: Follow Us -->\\n\\t\\t\\n\\t\\t<!-- start: Newsletter -->\\n\\t\\t<form id="newsletter">\\n\\t\\t  <h3>Novedades</h3>\\n\\t\\t  <p>Por favor dejanos tu direcci\\xc3\\xb3n de email si deseas tener novedades</p>\\n\\t\\t  <label for="newsletter_input">@:</label>\\n\\t\\t  <input type="text" id="newsletter_input"/>\\n\\t\\t  <input type="submit" id="newsletter_submit" value="submit">\\n\\t\\t</form>\\n\\t\\t<!-- end: Newsletter -->\\n\\t\\t\\n\\t      </div>\\n\\t      \\n\\t    </div>\\n\\t    <!-- end: Row -->\\t\\n\\t    \\n\\t  </div>\\n\\t  <!-- end: Container  -->\\n\\n\\t</div>\\n\\t<!-- end: Footer -->\\n\\t\\n      </div>\\n      <!-- end: Container  -->\\n\\n    </div>\\n    <!-- end: Wrapper  -->\\n\\n\\n    <!-- start: Copyright -->\\n    <div id="copyright">\\n      \\n      <!-- start: Container -->\\n      <div class="container">\\n\\t\\n\\t<p>\\n\\t  &copy; 2013, creativeLabs. <a href="http://bootstrapmaster.com" alt="Bootstrap Themes">Bootstrap Themes</a> Designed by BootstrapMaster in Poland <img src="/distribuidora/static/custom/img/poland.png" alt="Poland" style="margin-top:-4px">\\n\\t</p>\\n\\t\\n      </div>\\n      <!-- end: Container  -->\\n      \\n    </div>\\t\\n    <!-- end: Copyright -->\\n\\n    <!-- start: Java Script -->\\n    <!-- Placed at the end of the document so the pages load faster -->\\n    <script src="\', escape=False)\nresponse.write(URL(\'static\',\'js/bootstrap.js\'))\nresponse.write(\'"></script>\\n    <script src="\', escape=False)\nresponse.write(URL(\'static\',\'js/web2py.js\'))\nresponse.write(\'"></script>\\n    <script src="\', escape=False)\nresponse.write(URL(\'static\',\'js/web2py_bootstrap.js\'))\nresponse.write(\'"></script>\\n    <script src="\', escape=False)\nresponse.write(URL(\'static\',\'custom/js/flexslider.js\'))\nresponse.write(\'"></script>\\n    <script src="\', escape=False)\nresponse.write(URL(\'static\',\'custom/js/carousel.js\'))\nresponse.write(\'"></script>\\n    <script def src="\', escape=False)\nresponse.write(URL(\'static\',\'custom/js/custom.js\'))\nresponse.write(\'"></script>\\n    <!-- end: Java Script -->\\n\\n  </body>\\n</html>\\n\', escape=False)'
p7
sS'snapshot'
p8
(dp9
S'exception'
p10
(dp11
S'__hash__'
p12
S"<method-wrapper '__hash__' of exceptions.NameError object>"
p13
sS'__setattr__'
p14
S"<method-wrapper '__setattr__' of exceptions.NameError object>"
p15
sS'__reduce_ex__'
p16
S'<built-in method __reduce_ex__ of exceptions.NameError object>'
p17
sS'__getslice__'
p18
S"<method-wrapper '__getslice__' of exceptions.NameError object>"
p19
sS'__getitem__'
p20
S"<method-wrapper '__getitem__' of exceptions.NameError object>"
p21
sS'__setstate__'
p22
S'<built-in method __setstate__ of exceptions.NameError object>'
p23
sS'args'
p24
S'("name \'imagenes\' is not defined",)'
p25
sS'__reduce__'
p26
S'<built-in method __reduce__ of exceptions.NameError object>'
p27
sS'__str__'
p28
S"<method-wrapper '__str__' of exceptions.NameError object>"
p29
sS'__format__'
p30
S'<built-in method __format__ of exceptions.NameError object>'
p31
sS'__getattribute__'
p32
S"<method-wrapper '__getattribute__' of exceptions.NameError object>"
p33
sS'__class__'
p34
S"<type 'exceptions.NameError'>"
p35
sS'__unicode__'
p36
S'<built-in method __unicode__ of exceptions.NameError object>'
p37
sS'__delattr__'
p38
S"<method-wrapper '__delattr__' of exceptions.NameError object>"
p39
sS'__subclasshook__'
p40
S'<built-in method __subclasshook__ of type object>'
p41
sS'__repr__'
p42
S"<method-wrapper '__repr__' of exceptions.NameError object>"
p43
sS'__dict__'
p44
S'{}'
p45
sS'__sizeof__'
p46
S'<built-in method __sizeof__ of exceptions.NameError object>'
p47
sS'__doc__'
p48
S"'Name not found globally.'"
p49
sS'__init__'
p50
S"<method-wrapper '__init__' of exceptions.NameError object>"
p51
sS'__new__'
p52
S'<built-in method __new__ of type object>'
p53
ssS'evalue'
p54
S"name 'imagenes' is not defined"
p55
sS'request'
p56
cgluon.html
XML_unpickle
p57
(S's&V\x00\x00<div><table><tr><td style="font-weight:bold;vertical-align:top;">ajax</td><td style="vertical-align:top;">:</td><td><div>False</div></td></tr><tr><td style="font-weight:bold;vertical-align:top;">application</td><td style="vertical-align:top;">:</td><td><div>distribuidora</div></td></tr><tr><td style="font-weight:bold;vertical-align:top;">args</td><td style="vertical-align:top;">:</td><td><div><table></table></div></td></tr><tr><td style="font-weight:bold;vertical-align:top;">cid</td><td style="vertical-align:top;">:</td><td><div>None</div></td></tr><tr><td style="font-weight:bold;vertical-align:top;">client</td><td style="vertical-align:top;">:</td><td><div>127.0.0.1</div></td></tr><tr><td style="font-weight:bold;vertical-align:top;">controller</td><td style="vertical-align:top;">:</td><td><div>default</div></td></tr><tr><td style="font-weight:bold;vertical-align:top;">cookies</td><td style="vertical-align:top;">:</td><td><div><table><tr><td style="font-weight:bold;vertical-align:top;">session_id_admin</td><td style="vertical-align:top;">:</td><td><div>127.0.0.1-1f090de1-f7c0-4fb6-98c0-bafebe3e8d0c<table><tr><td style="font-weight:bold;vertical-align:top;">comment</td><td style="vertical-align:top;">:</td><td><div></div></td></tr><tr><td style="font-weight:bold;vertical-align:top;">domain</td><td style="vertical-align:top;">:</td><td><div></div></td></tr><tr><td style="font-weight:bold;vertical-align:top;">expires</td><td style="vertical-align:top;">:</td><td><div></div></td></tr><tr><td style="font-weight:bold;vertical-align:top;">httponly</td><td style="vertical-align:top;">:</td><td><div></div></td></tr><tr><td style="font-weight:bold;vertical-align:top;">max-age</td><td style="vertical-align:top;">:</td><td><div></div></td></tr><tr><td style="font-weight:bold;vertical-align:top;">path</td><td style="vertical-align:top;">:</td><td><div></div></td></tr><tr><td style="font-weight:bold;vertical-align:top;">secure</td><td style="vertical-align:top;">:</td><td><div></div></td></tr><tr><td style="font-weight:bold;vertical-align:top;">version</td><td style="vertical-align:top;">:</td><td><div></div></td></tr></table></div></td></tr><tr><td style="font-weight:bold;vertical-align:top;">session_id_distribuidora</td><td style="vertical-align:top;">:</td><td><div>127.0.0.1-961b3c77-1eeb-4346-ad85-67e667d8794d<table><tr><td style="font-weight:bold;vertical-align:top;">comment</td><td style="vertical-align:top;">:</td><td><div></div></td></tr><tr><td style="font-weight:bold;vertical-align:top;">domain</td><td style="vertical-align:top;">:</td><td><div></div></td></tr><tr><td style="font-weight:bold;vertical-align:top;">expires</td><td style="vertical-align:top;">:</td><td><div></div></td></tr><tr><td style="font-weight:bold;vertical-align:top;">httponly</td><td style="vertical-align:top;">:</td><td><div></div></td></tr><tr><td style="font-weight:bold;vertical-align:top;">max-age</td><td style="vertical-align:top;">:</td><td><div></div></td></tr><tr><td style="font-weight:bold;vertical-align:top;">path</td><td style="vertical-align:top;">:</td><td><div></div></td></tr><tr><td style="font-weight:bold;vertical-align:top;">secure</td><td style="vertical-align:top;">:</td><td><div></div></td></tr><tr><td style="font-weight:bold;vertical-align:top;">version</td><td style="vertical-align:top;">:</td><td><div></div></td></tr></table></div></td></tr></table></div></td></tr><tr><td style="font-weight:bold;vertical-align:top;">env</td><td style="vertical-align:top;">:</td><td><div><table><tr><td style="font-weight:bold;vertical-align:top;">HTTP_ACCEPT</td><td style="vertical-align:top;">:</td><td><div>text/html,application/xhtml+xml,application/xml;q=0.9,*/*;q=0.8</div></td></tr><tr><td style="font-weight:bold;vertical-align:top;">HTTP_ACCEPT_ENCODING</td><td style="vertical-align:top;">:</td><td><div>gzip, deflate</div></td></tr><tr><td style="font-weight:bold;vertical-align:top;">HTTP_ACCEPT_LANGUAGE</td><td style="vertical-align:top;">:</td><td><div>en-US,en;q=0.5</div></td></tr><tr><td style="font-weight:bold;vertical-align:top;">HTTP_CACHE_CONTROL</td><td style="vertical-align:top;">:</td><td><div>max-age=0</div></td></tr><tr><td style="font-weight:bold;vertical-align:top;">HTTP_CONNECTION</td><td style="vertical-align:top;">:</td><td><div>keep-alive</div></td></tr><tr><td style="font-weight:bold;vertical-align:top;">HTTP_COOKIE</td><td style="vertical-align:top;">:</td><td><div>session_id_distribuidora=127.0.0.1-961b3c77-1eeb-4346-ad85-67e667d8794d; session_id_admin=127.0.0.1-1f090de1-f7c0-4fb6-98c0-bafebe3e8d0c</div></td></tr><tr><td style="font-weight:bold;vertical-align:top;">HTTP_HOST</td><td style="vertical-align:top;">:</td><td><div>127.0.0.1:8000</div></td></tr><tr><td style="font-weight:bold;vertical-align:top;">HTTP_REFERER</td><td style="vertical-align:top;">:</td><td><div>http://127.0.0.1:8000/distribuidora/webmin/portada</div></td></tr><tr><td style="font-weight:bold;vertical-align:top;">HTTP_USER_AGENT</td><td style="vertical-align:top;">:</td><td><div>Mozilla/5.0 (X11; Linux x86_64; rv:32.0) Gecko/20100101 Firefox/32.0 Iceweasel/32.0</div></td></tr><tr><td style="font-weight:bold;vertical-align:top;">PATH_INFO</td><td style="vertical-align:top;">:</td><td><div>/distribuidora/default/index</div></td></tr><tr><td style="font-weight:bold;vertical-align:top;">QUERY_STRING</td><td style="vertical-align:top;">:</td><td><div></div></td></tr><tr><td style="font-weight:bold;vertical-align:top;">REMOTE_ADDR</td><td style="vertical-align:top;">:</td><td><div>127.0.0.1</div></td></tr><tr><td style="font-weight:bold;vertical-align:top;">REMOTE_PORT</td><td style="vertical-align:top;">:</td><td><div>59853</div></td></tr><tr><td style="font-weight:bold;vertical-align:top;">REQUEST_METHOD</td><td style="vertical-align:top;">:</td><td><div>GET</div></td></tr><tr><td style="font-weight:bold;vertical-align:top;">SCRIPT_NAME</td><td style="vertical-align:top;">:</td><td><div></div></td></tr><tr><td style="font-weight:bold;vertical-align:top;">SERVER_NAME</td><td style="vertical-align:top;">:</td><td><div>malena</div></td></tr><tr><td style="font-weight:bold;vertical-align:top;">SERVER_PORT</td><td style="vertical-align:top;">:</td><td><div>8000</div></td></tr><tr><td style="font-weight:bold;vertical-align:top;">SERVER_PROTOCOL</td><td style="vertical-align:top;">:</td><td><div>HTTP/1.1</div></td></tr><tr><td style="font-weight:bold;vertical-align:top;">SERVER_SOFTWARE</td><td style="vertical-align:top;">:</td><td><div>Rocket 1.2.6</div></td></tr><tr><td style="font-weight:bold;vertical-align:top;">app_folders</td><td style="vertical-align:top;">:</td><td><div>set([&#x27;/home/marco/trabajo/experimental/web2py/applications/admin/&#x27;, &#x27;/home/marco/trabajo/experimental/web2py/applications/distribuidora/&#x27;])</div></td></tr><tr><td style="font-weight:bold;vertical-align:top;">applications_parent</td><td style="vertical-align:top;">:</td><td><div>/home/marco/trabajo/experimental/web2py</div></td></tr><tr><td style="font-weight:bold;vertical-align:top;">cmd_args</td><td style="vertical-align:top;">:</td><td><div><table></table></div></td></tr><tr><td style="font-weight:bold;vertical-align:top;">cmd_options</td><td style="vertical-align:top;">:</td><td><div>&lt;Values at 0x7f3682739b90: {&#x27;verbose&#x27;: False, &#x27;ip&#x27;: &#x27;127.0.0.1&#x27;, &#x27;debuglevel&#x27;: 30, &#x27;with_scheduler&#x27;: False, &#x27;ips&#x27;: [&#x27;127.0.1.1&#x27;], &#x27;shutdown_timeout&#x27;: 5, &#x27;taskbar&#x27;: False, &#x27;with_coverage&#x27;: False, &#x27;scheduler_groups&#x27;: None, &#x27;port&#x27;: 8000, &#x27;maxthreads&#x27;: None, &#x27;softcron&#x27;: False, &#x27;server_name&#x27;: &#x27;malena&#x27;, &#x27;bpython&#x27;: False, &#x27;nogui&#x27;: False, &#x27;pid_filename&#x27;: &#x27;httpserver.pid&#x27;, &#x27;extcron&#x27;: False, &#x27;runcron&#x27;: False, &#x27;run_system_tests&#x27;: False, &#x27;test&#x27;: None, &#x27;folder&#x27;: &#x27;/home/marco/trabajo/experimental/web2py&#x27;, &#x27;config&#x27;: &#x27;&#x27;, &#x27;minthreads&#x27;: None, &#x27;shell&#x27;: None, &#x27;run&#x27;: &#x27;&#x27;, &#x27;log_filename&#x27;: &#x27;httpserver.log&#x27;, &#x27;profiler_dir&#x27;: None, &#x27;args&#x27;: [&#x27;&#x27;], &#x27;socket_timeout&#x27;: 5, &#x27;ssl_ca_certificate&#x27;: None, &#x27;scheduler&#x27;: None, &#x27;interfaces&#x27;: None, &#x27;ssl_private_key&#x27;: &#x27;&#x27;, &#x27;gae&#x27;: None, &#x27;password&#x27;: &#x27;asd&#x27;, &#x27;request_queue_size&#x27;: 5, &#x27;ssl_certificate&#x27;: &#x27;&#x27;, &#x27;cronjob&#x27;: False, &#x27;numthreads&#x27;: None, &#x27;quiet&#x27;: False, &#x27;import_models&#x27;: False, &#x27;timeout&#x27;: 10, &#x27;plain&#x27;: False, &#x27;nobanner&#x27;: False}&gt;</div></td></tr><tr><td style="font-weight:bold;vertical-align:top;">db_sessions</td><td style="vertical-align:top;">:</td><td><div>set([])</div></td></tr><tr><td style="font-weight:bold;vertical-align:top;">debugging</td><td style="vertical-align:top;">:</td><td><div>False</div></td></tr><tr><td style="font-weight:bold;vertical-align:top;">gluon_parent</td><td style="vertical-align:top;">:</td><td><div>/home/marco/trabajo/experimental/web2py</div></td></tr><tr><td style="font-weight:bold;vertical-align:top;">http_accept</td><td style="vertical-align:top;">:</td><td><div>text/html,application/xhtml+xml,application/xml;q=0.9,*/*;q=0.8</div></td></tr><tr><td style="font-weight:bold;vertical-align:top;">http_accept_encoding</td><td style="vertical-align:top;">:</td><td><div>gzip, deflate</div></td></tr><tr><td style="font-weight:bold;vertical-align:top;">http_accept_language</td><td style="vertical-align:top;">:</td><td><div>en-US,en;q=0.5</div></td></tr><tr><td style="font-weight:bold;vertical-align:top;">http_cache_control</td><td style="vertical-align:top;">:</td><td><div>max-age=0</div></td></tr><tr><td style="font-weight:bold;vertical-align:top;">http_connection</td><td style="vertical-align:top;">:</td><td><div>keep-alive</div></td></tr><tr><td style="font-weight:bold;vertical-align:top;">http_cookie</td><td style="vertical-align:top;">:</td><td><div>session_id_distribuidora=127.0.0.1-961b3c77-1eeb-4346-ad85-67e667d8794d; session_id_admin=127.0.0.1-1f090de1-f7c0-4fb6-98c0-bafebe3e8d0c</div></td></tr><tr><td style="font-weight:bold;vertical-align:top;">http_host</td><td style="vertical-align:top;">:</td><td><div>127.0.0.1:8000</div></td></tr><tr><td style="font-weight:bold;vertical-align:top;">http_referer</td><td style="vertical-align:top;">:</td><td><div>http://127.0.0.1:8000/distribuidora/webmin/portada</div></td></tr><tr><td style="font-weight:bold;vertical-align:top;">http_user_agent</td><td style="vertical-align:top;">:</td><td><div>Mozilla/5.0 (X11; Linux x86_64; rv:32.0) Gecko/20100101 Firefox/32.0 Iceweasel/32.0</div></td></tr><tr><td style="font-weight:bold;vertical-align:top;">is_jython</td><td style="vertical-align:top;">:</td><td><div>False</div></td></tr><tr><td style="font-weight:bold;vertical-align:top;">is_pypy</td><td style="vertical-align:top;">:</td><td><div>False</div></td></tr><tr><td style="font-weight:bold;vertical-align:top;">is_source</td><td style="vertical-align:top;">:</td><td><div>True</div></td></tr><tr><td style="font-weight:bold;vertical-align:top;">local_hosts</td><td style="vertical-align:top;">:</td><td><div><table><tr><td><div>malena</div></td></tr><tr><td><div>::1</div></td></tr><tr><td><div>127.0.1.1</div></td></tr><tr><td><div>::ffff:127.0.0.1</div></td></tr><tr><td><div>127.0.0.1</div></td></tr></table></div></td></tr><tr><td style="font-weight:bold;vertical-align:top;">path_info</td><td style="vertical-align:top;">:</td><td><div>/distribuidora/default/index</div></td></tr><tr><td style="font-weight:bold;vertical-align:top;">query_string</td><td style="vertical-align:top;">:</td><td><div></div></td></tr><tr><td style="font-weight:bold;vertical-align:top;">remote_addr</td><td style="vertical-align:top;">:</td><td><div>127.0.0.1</div></td></tr><tr><td style="font-weight:bold;vertical-align:top;">remote_port</td><td style="vertical-align:top;">:</td><td><div>59853</div></td></tr><tr><td style="font-weight:bold;vertical-align:top;">request_method</td><td style="vertical-align:top;">:</td><td><div>GET</div></td></tr><tr><td style="font-weight:bold;vertical-align:top;">request_uri</td><td style="vertical-align:top;">:</td><td><div>/distribuidora/default/index</div></td></tr><tr><td style="font-weight:bold;vertical-align:top;">script_name</td><td style="vertical-align:top;">:</td><td><div></div></td></tr><tr><td style="font-weight:bold;vertical-align:top;">server_name</td><td style="vertical-align:top;">:</td><td><div>malena</div></td></tr><tr><td style="font-weight:bold;vertical-align:top;">server_port</td><td style="vertical-align:top;">:</td><td><div>8000</div></td></tr><tr><td style="font-weight:bold;vertical-align:top;">server_protocol</td><td style="vertical-align:top;">:</td><td><div>HTTP/1.1</div></td></tr><tr><td style="font-weight:bold;vertical-align:top;">server_software</td><td style="vertical-align:top;">:</td><td><div>Rocket 1.2.6</div></td></tr><tr><td style="font-weight:bold;vertical-align:top;">web2py_path</td><td style="vertical-align:top;">:</td><td><div>/home/marco/trabajo/experimental/web2py</div></td></tr><tr><td style="font-weight:bold;vertical-align:top;">web2py_version</td><td style="vertical-align:top;">:</td><td><div>2.9.5-trunk+timestamp.2014.06.14.10.06.38</div></td></tr><tr><td style="font-weight:bold;vertical-align:top;">wsgi.errors</td><td style="vertical-align:top;">:</td><td><div>&lt;open file &#x27;&lt;stderr&gt;&#x27;, mode &#x27;w&#x27; at 0x7f368cdf81e0&gt;</div></td></tr><tr><td style="font-weight:bold;vertical-align:top;">wsgi.file_wrapper</td><td style="vertical-align:top;">:</td><td><div>&lt;class wsgiref.util.FileWrapper at 0x7f36827b8530&gt;</div></td></tr><tr><td style="font-weight:bold;vertical-align:top;">wsgi.input</td><td style="vertical-align:top;">:</td><td><div>&lt;socket._fileobject object at 0x7f36801057d0&gt;</div></td></tr><tr><td style="font-weight:bold;vertical-align:top;">wsgi.multiprocess</td><td style="vertical-align:top;">:</td><td><div>False</div></td></tr><tr><td style="font-weight:bold;vertical-align:top;">wsgi.multithread</td><td style="vertical-align:top;">:</td><td><div>True</div></td></tr><tr><td style="font-weight:bold;vertical-align:top;">wsgi.run_once</td><td style="vertical-align:top;">:</td><td><div>False</div></td></tr><tr><td style="font-weight:bold;vertical-align:top;">wsgi.url_scheme</td><td style="vertical-align:top;">:</td><td><div>http</div></td></tr><tr><td style="font-weight:bold;vertical-align:top;">wsgi.version</td><td style="vertical-align:top;">:</td><td><div><table><tr><td><div>1</div></td></tr><tr><td><div>0</div></td></tr></table></div></td></tr><tr><td style="font-weight:bold;vertical-align:top;">wsgi_errors</td><td style="vertical-align:top;">:</td><td><div>&lt;open file &#x27;&lt;stderr&gt;&#x27;, mode &#x27;w&#x27; at 0x7f368cdf81e0&gt;</div></td></tr><tr><td style="font-weight:bold;vertical-align:top;">wsgi_file_wrapper</td><td style="vertical-align:top;">:</td><td><div>&lt;class wsgiref.util.FileWrapper at 0x7f36827b8530&gt;</div></td></tr><tr><td style="font-weight:bold;vertical-align:top;">wsgi_input</td><td style="vertical-align:top;">:</td><td><div>&lt;socket._fileobject object at 0x7f36801057d0&gt;</div></td></tr><tr><td style="font-weight:bold;vertical-align:top;">wsgi_multiprocess</td><td style="vertical-align:top;">:</td><td><div>False</div></td></tr><tr><td style="font-weight:bold;vertical-align:top;">wsgi_multithread</td><td style="vertical-align:top;">:</td><td><div>True</div></td></tr><tr><td style="font-weight:bold;vertical-align:top;">wsgi_run_once</td><td style="vertical-align:top;">:</td><td><div>False</div></td></tr><tr><td style="font-weight:bold;vertical-align:top;">wsgi_url_scheme</td><td style="vertical-align:top;">:</td><td><div>http</div></td></tr><tr><td style="font-weight:bold;vertical-align:top;">wsgi_version</td><td style="vertical-align:top;">:</td><td><div><table><tr><td><div>1</div></td></tr><tr><td><div>0</div></td></tr></table></div></td></tr></table></div></td></tr><tr><td style="font-weight:bold;vertical-align:top;">extension</td><td style="vertical-align:top;">:</td><td><div>html</div></td></tr><tr><td style="font-weight:bold;vertical-align:top;">folder</td><td style="vertical-align:top;">:</td><td><div>/home/marco/trabajo/experimental/web2py/applications/distribuidora/</div></td></tr><tr><td style="font-weight:bold;vertical-align:top;">function</td><td style="vertical-align:top;">:</td><td><div>index</div></td></tr><tr><td style="font-weight:bold;vertical-align:top;">global_settings</td><td style="vertical-align:top;">:</td><td><div><table><tr><td style="font-weight:bold;vertical-align:top;">app_folders</td><td style="vertical-align:top;">:</td><td><div>set([&#x27;/home/marco/trabajo/experimental/web2py/applications/admin/&#x27;, &#x27;/home/marco/trabajo/experimental/web2py/applications/distribuidora/&#x27;])</div></td></tr><tr><td style="font-weight:bold;vertical-align:top;">applications_parent</td><td style="vertical-align:top;">:</td><td><div>/home/marco/trabajo/experimental/web2py</div></td></tr><tr><td style="font-weight:bold;vertical-align:top;">cmd_args</td><td style="vertical-align:top;">:</td><td><div><table></table></div></td></tr><tr><td style="font-weight:bold;vertical-align:top;">cmd_options</td><td style="vertical-align:top;">:</td><td><div>&lt;Values at 0x7f3682739b90: {&#x27;verbose&#x27;: False, &#x27;ip&#x27;: &#x27;127.0.0.1&#x27;, &#x27;debuglevel&#x27;: 30, &#x27;with_scheduler&#x27;: False, &#x27;ips&#x27;: [&#x27;127.0.1.1&#x27;], &#x27;shutdown_timeout&#x27;: 5, &#x27;taskbar&#x27;: False, &#x27;with_coverage&#x27;: False, &#x27;scheduler_groups&#x27;: None, &#x27;port&#x27;: 8000, &#x27;maxthreads&#x27;: None, &#x27;softcron&#x27;: False, &#x27;server_name&#x27;: &#x27;malena&#x27;, &#x27;bpython&#x27;: False, &#x27;nogui&#x27;: False, &#x27;pid_filename&#x27;: &#x27;httpserver.pid&#x27;, &#x27;extcron&#x27;: False, &#x27;runcron&#x27;: False, &#x27;run_system_tests&#x27;: False, &#x27;test&#x27;: None, &#x27;folder&#x27;: &#x27;/home/marco/trabajo/experimental/web2py&#x27;, &#x27;config&#x27;: &#x27;&#x27;, &#x27;minthreads&#x27;: None, &#x27;shell&#x27;: None, &#x27;run&#x27;: &#x27;&#x27;, &#x27;log_filename&#x27;: &#x27;httpserver.log&#x27;, &#x27;profiler_dir&#x27;: None, &#x27;args&#x27;: [&#x27;&#x27;], &#x27;socket_timeout&#x27;: 5, &#x27;ssl_ca_certificate&#x27;: None, &#x27;scheduler&#x27;: None, &#x27;interfaces&#x27;: None, &#x27;ssl_private_key&#x27;: &#x27;&#x27;, &#x27;gae&#x27;: None, &#x27;password&#x27;: &#x27;asd&#x27;, &#x27;request_queue_size&#x27;: 5, &#x27;ssl_certificate&#x27;: &#x27;&#x27;, &#x27;cronjob&#x27;: False, &#x27;numthreads&#x27;: None, &#x27;quiet&#x27;: False, &#x27;import_models&#x27;: False, &#x27;timeout&#x27;: 10, &#x27;plain&#x27;: False, &#x27;nobanner&#x27;: False}&gt;</div></td></tr><tr><td style="font-weight:bold;vertical-align:top;">db_sessions</td><td style="vertical-align:top;">:</td><td><div>set([])</div></td></tr><tr><td style="font-weight:bold;vertical-align:top;">debugging</td><td style="vertical-align:top;">:</td><td><div>False</div></td></tr><tr><td style="font-weight:bold;vertical-align:top;">gluon_parent</td><td style="vertical-align:top;">:</td><td><div>/home/marco/trabajo/experimental/web2py</div></td></tr><tr><td style="font-weight:bold;vertical-align:top;">is_jython</td><td style="vertical-align:top;">:</td><td><div>False</div></td></tr><tr><td style="font-weight:bold;vertical-align:top;">is_pypy</td><td style="vertical-align:top;">:</td><td><div>False</div></td></tr><tr><td style="font-weight:bold;vertical-align:top;">is_source</td><td style="vertical-align:top;">:</td><td><div>True</div></td></tr><tr><td style="font-weight:bold;vertical-align:top;">local_hosts</td><td style="vertical-align:top;">:</td><td><div><table><tr><td><div>malena</div></td></tr><tr><td><div>::1</div></td></tr><tr><td><div>127.0.1.1</div></td></tr><tr><td><div>::ffff:127.0.0.1</div></td></tr><tr><td><div>127.0.0.1</div></td></tr></table></div></td></tr><tr><td style="font-weight:bold;vertical-align:top;">web2py_version</td><td style="vertical-align:top;">:</td><td><div>2.9.5-trunk+timestamp.2014.06.14.10.06.38</div></td></tr></table></div></td></tr><tr><td style="font-weight:bold;vertical-align:top;">is_https</td><td style="vertical-align:top;">:</td><td><div>False</div></td></tr><tr><td style="font-weight:bold;vertical-align:top;">is_local</td><td style="vertical-align:top;">:</td><td><div>True</div></td></tr><tr><td style="font-weight:bold;vertical-align:top;">is_restful</td><td style="vertical-align:top;">:</td><td><div>False</div></td></tr><tr><td style="font-weight:bold;vertical-align:top;">now</td><td style="vertical-align:top;">:</td><td><div>datetime.datetime(2014, 8, 1, 2, 53, 15, 808628)</div></td></tr><tr><td style="font-weight:bold;vertical-align:top;">raw_args</td><td style="vertical-align:top;">:</td><td><div></div></td></tr><tr><td style="font-weight:bold;vertical-align:top;">raw_extension</td><td style="vertical-align:top;">:</td><td><div>None</div></td></tr><tr><td style="font-weight:bold;vertical-align:top;">url</td><td style="vertical-align:top;">:</td><td><div>/distribuidora/default/index</div></td></tr><tr><td style="font-weight:bold;vertical-align:top;">utcnow</td><td style="vertical-align:top;">:</td><td><div>datetime.datetime(2014, 8, 1, 5, 53, 15, 808675)</div></td></tr><tr><td style="font-weight:bold;vertical-align:top;">uuid</td><td style="vertical-align:top;">:</td><td><div>distribuidora/127.0.0.1.2014-08-01.02-53-15.19f215c6-b3c2-4b5b-a040-dcdb07466503</div></td></tr><tr><td style="font-weight:bold;vertical-align:top;">wsgi</td><td style="vertical-align:top;">:</td><td><div>&lt;gluon.main.LazyWSGI object at 0x7f364e802dd0&gt;</div></td></tr></table></div>'
tRp58
sS'frames'
p59
(lp60
(dp61
S'file'
p62
S'/home/marco/trabajo/experimental/web2py/gluon/restricted.py'
p63
sS'dump'
p64
(dp65
S'environment'
p66
S"{'A': <class 'gluon.html.A'>, 'ANY_OF': <class 'gluon.validators.ANY_OF'>, 'Auth': <class 'gluon.tools.Auth'>, 'B': <class 'gluon.html.B'>, 'BEAUTIFY': <class 'gluon.html.BEAUTIFY'>, 'BODY': <class 'gluon.html.BODY'>, 'BR': <class 'gluon.html.BR'>, 'BUTTON': <class 'gluon.html.BUTTON'>, 'CAT': <class 'gluon.html.CAT'>, 'CENTER': <class 'gluon.html.CENTER'>, ...}"
p67
sS'ccode'
p68
S'<code object <module> at 0x7f364e8f5d30, file "/.../distribuidora/views/default/index.html", line 1>'
p69
ssS'lnum'
p70
I221
sS'lines'
p71
(dp72
I224
S'    except RestrictedError:'
p73
sI225
S'        # do not encapsulate (obfuscate) the original RestrictedError'
p74
sI216
S'    try:'
p75
sI217
S'        if isinstance(code, types.CodeType):'
p76
sI218
S'            ccode = code'
p77
sI219
S'        else:'
p78
sI220
S'            ccode = compile2(code, layer)'
p79
sI221
S'        exec ccode in environment'
p80
sI222
S'    except HTTP:'
p81
sI223
S'        raise'
p82
ssS'call'
p83
S'(code=\'response.write(\\\'<!DOCTYPE html>\\\\n<html lang="en"...cript -->\\\\n\\\\n  </body>\\\\n</html>\\\\n\\\', escape=False)\', environment={\'A\': <class \'gluon.html.A\'>, \'ANY_OF\': <class \'gluon.validators.ANY_OF\'>, \'Auth\': <class \'gluon.tools.Auth\'>, \'B\': <class \'gluon.html.B\'>, \'BEAUTIFY\': <class \'gluon.html.BEAUTIFY\'>, \'BODY\': <class \'gluon.html.BODY\'>, \'BR\': <class \'gluon.html.BR\'>, \'BUTTON\': <class \'gluon.html.BUTTON\'>, \'CAT\': <class \'gluon.html.CAT\'>, \'CENTER\': <class \'gluon.html.CENTER\'>, ...}, layer=\'/home/marco/trabajo/experimental/web2py/applications/distribuidora/views/default/index.html\')'
p84
sS'func'
p85
S'restricted'
p86
sa(dp87
g62
S'/home/marco/trabajo/experimental/web2py/applications/distribuidora/views/default/index.html'
p88
sg64
(dp89
S'li'
p90
S'undefined'
p91
ssg70
I39
sg71
(dp92
I32
S'    pass'
p93
sI33
S'response.write(\'\\n\\n\\t\\t<!-- MODAL FOR CONTACT -->\\n\\t\\t<!-- Modal -->\\n\\t\\t<div class="modal fade" id="myModal" tabindex="-1" role="dialog" aria-labelledby="myModalLabel" aria-hidden="true">\\n\\t\\t  <div class="modal-dialog">\\n\\t\\t    <div class="modal-content">\\n\\t\\t      <div class="modal-header">\\n\\t\\t\\t<button type="button" class="close" data-dismiss="modal" aria-hidden="true">&times;</button>\\n\\t\\t\\t<h4 class="modal-title" id="myModalLabel">Contactanos</h4>\\n\\t\\t      </div>\\n\\t\\t      <div class="modal-body">\\n\\t\\t\\t<div class="row centered">\\n\\t\\t\\t  <div>\\n\\t\\t\\t    <p>idsd</p>\\n\\t\\t\\t  </div>\\n\\t\\t\\t  <div class="col-md-12"><p> info@xignus.com.ar o al +54 351 6485781</p></div>\\n\\t\\t\\t</div>\\n\\t\\t      </div>\\n\\t\\t    </div><!-- /.modal-content -->\\n\\t\\t  </div><!-- /.modal-dialog -->\\n\\t\\t</div><!-- /.modal -->\\n\\n              </div>\\n            </div>\\n      \\t  </div>\\n    \\t</div>\\n\\t<!--end: Navigation-->\\n\\t\\n      </div>\\n      <!--start: Container -->\\n      <div class="container">\\n\\t\', escape=False)'
p94
sI34
S'response.write(\'\\n\\n\\n<!-- start: Flexslider -->\\n<div class="slider">\\n\\n  <div class="flexslider">\\n    <ul class="slides">\\n\\n      \', escape=False)'
p95
sI35
S'for imagen in portada:'
p96
sI36
S'    response.write(\'\\n      <li>\\n\\t<img src="\', escape=False)'
p97
sI37
S"    response.write(URL('download',args=imagen.imagen))"
p98
sI38
S'    response.write(\'" alt="" />\\n\\t<div class="slide-caption hidden-phone">\\n\\t  <h3>\', escape=False)'
p99
sI39
S'    response.write(imagenes.titulo.capitalize)'
p100
sI40
S"    response.write('</h3>\\n\\t  <p>', escape=False)"
p101
sI41
S'    response.write(imagenes.descripcion)'
p102
sI42
S"    response.write('</p>\\n\\t</div>\\n      </li>\\n\\t\\n      ', escape=False)"
p103
sI43
S'    pass'
p104
sI44
S'response.write(\'\\n      <li>\\n\\t<img src="/distribuidora/static/custom/img/slider/slider1.jpg" alt="" />\\n\\t<div class="slide-caption n hidden-phone">\\n\\t  <h3>This is a caption</h3>\\n\\t  <p>\\n\\t    Lorem ipsum dolor sit amet, consectetuer adipiscing elit, sed diam nonummy nibh euismod tincidunt ut laoreet dolore magna aliquam erat volutpat. Ut wisi enim ad minim veniam, quis nostrud exerci tation ullamcorper suscipit lobortis nisl ut aliquip ex ea commodo consequat.\\n\\t  </p>\\n\\t</div>\\n      </li>\\n\\n      <li>\\n\\t<img src="/distribuidora/static/custom/img/slider/slider2.jpg" alt="" />\\n\\t<div class="slide-caption hidden-phone">\\n\\t  <h3>This is a caption</h3>\\n\\t  <p>\\n\\t    Lorem ipsum dolor sit amet, consectetuer adipiscing elit, sed diam nonummy nibh euismod tincidunt ut laoreet dolore magna aliquam erat volutpat. Ut wisi enim ad minim veniam, quis nostrud exerci tation ullamcorper suscipit lobortis nisl ut aliquip ex ea commodo consequat.\\n\\t  </p>\\n\\t</div>\\n      </li>\\n\\n      <li>\\n\\t<img src="/distribuidora/static/custom/img/slider/slider3.jpg" alt="" />\\n      </li>\\n\\n    </ul>\\n  </div>\\n\\n</div>\\n<!-- end: Flexslider -->\\n\\n<!-- start: Hero Unit - Main hero unit for a primary marketing message or call to action -->\\n<div class="hero-unit">\\n  <p>\\n    This is a template for a simple marketing or informational website. It includes a large callout called the hero unit and three supporting pieces of content. Use it as a starting point to create something more unique.\\n  </p>\\n  <p><a class="btn btn-success btn-large">Learn more &raquo;</a></p>\\n</div>\\n<!-- end: Hero Unit -->\\n\\n<!-- start: Row -->\\n<div class="row">\\n\\n  <div class="span4">\\n    <div class="icons-box">\\n      <i class="ico-ok circle big"></i>\\n      <div class="title"><h3>Easy to use</h3></div>\\n      <p>\\n\\tLorem ipsum dolor sit amet, consectetuer adipiscing elit, sed diam nonummy nibh euismod tincidunt ut laoreet dolore magna aliquam erat volutpat.\\n      </p>\\n      <div class="clear"></div>\\n    </div>\\n  </div>\\n\\n  <div class="span4">\\n    <div class="icons-box">\\n      <i class="ico-ipad circle big"></i>\\n      <div class="title"><h3>Responsive</h3></div>\\n      <p>\\n\\tLorem ipsum dolor sit amet, consectetuer adipiscing elit, sed diam nonummy nibh euismod tincidunt ut laoreet dolore magna aliquam erat volutpat.\\n      </p>\\n      <div class="clear"></div>\\n    </div>\\n  </div>\\n\\n  <div class="span4">\\n    <div class="icons-box">\\n      <i class="ico-heart circle big"></i>\\n      <div class="title"><h3>User friendly</h3></div>\\n      <p>\\n\\tLorem ipsum dolor sit amet, consectetuer adipiscing elit, sed diam nonummy nibh euismod tincidunt ut laoreet dolore magna aliquam erat volutpat.\\n      </p>\\n      <div class="clear"></div>\\n    </div>\\n  </div>\\n\\n</div>\\n<!-- end: Row -->\\n\\n<hr>\\n\\n<!-- start Clients List -->\\t\\n<div class="clients-carousel">\\n\\n  <ul class="slides clients">\\n    <li><img src="/distribuidora/static/custom/img/logos/1.png" alt=""/></li>\\n    <li><img src="/distribuidora/static/custom/img/logos/2.png" alt=""/></li>\\t\\n    <li><img src="/distribuidora/static/custom/img/logos/3.png" alt=""/></li>\\n    <li><img src="/distribuidora/static/custom/img/logos/4.png" alt=""/></li>\\n    <li><img src="/distribuidora/static/custom/img/logos/5.png" alt=""/></li>\\n    <li><img src="/distribuidora/static/custom/img/logos/6.png" alt=""/></li>\\n    <li><img src="/distribuidora/static/custom/img/logos/7.png" alt=""/></li>\\n    <li><img src="/distribuidora/static/custom/img/logos/8.png" alt=""/></li>\\n    <li><img src="/distribuidora/static/custom/img/logos/9.png" alt=""/></li>\\n    <li><img src="/distribuidora/static/custom/img/logos/10.png" alt=""/></li>\\t\\t\\n  </ul>\\n\\n</div>\\n<!-- end Clients List -->\\n\\n<hr>\\n\\n<!-- start: Row -->\\n<div class="row">\\n\\n  <!-- start: Icon Boxes -->\\n  <div class="icons-box-vert-container">\\n\\n    <!-- start: Icon Box Start -->\\n    <div class="span6">\\n      <div class="icons-box-vert">\\n\\t<i class="ico-ok ico-color circle-color big"></i>\\n\\t<div class="icons-box-vert-info">\\n\\t  <h3>Easy to use</h3>\\n\\t  <p>Lorem ipsum dolor sit amet, consectetuer adipiscing elit, sed diam nonummy nibh euismod tincidunt ut laoreet dolore magna aliquam erat volutpat.</p>\\n\\t</div>\\n\\t<div class="clear"></div>\\n      </div>\\n    </div>\\n    <!-- end: Icon Box-->\\n\\n    <!-- start: Icon Box Start -->\\n    <div class="span6">\\n      <div class="icons-box-vert">\\n\\t<i class="ico-cup  ico-white circle-color-full big-color"></i>\\n\\t<div class="icons-box-vert-info">\\n\\t  <h3>Best choice</h3>\\n\\t  <p>Lorem ipsum dolor sit amet, consectetuer adipiscing elit, sed diam nonummy nibh euismod tincidunt ut laoreet dolore magna aliquam erat volutpat.</p>\\n\\t</div>\\n\\t<div class="clear"></div>\\n      </div>\\n    </div>\\n    <!-- end: Icon Box -->\\n\\n    <!-- start: Icon Box Start -->\\n    <div class="span6">\\n      <div class="icons-box-vert">\\n\\t<i class="ico-ipad ico-color circle-color big"></i>\\n\\t<div class="icons-box-vert-info">\\n\\t  <h3>Fully Responsive</h3>\\n\\t  <p>Lorem ipsum dolor sit amet, consectetuer adipiscing elit, sed diam nonummy nibh euismod tincidunt ut laoreet dolore magna aliquam erat volutpat.</p>\\n\\t</div>\\n\\t<div class="clear"></div>\\n      </div>\\n    </div>\\n    <!-- end: Icon Box -->\\n\\n    <!-- start: Icon Box Start -->\\n    <div class="span6">\\n      <div class="icons-box-vert">\\n\\t<i class="ico-thumbs-up  ico-white circle-color-full big-color"></i>\\n\\t<div class="icons-box-vert-info">\\n\\t  <h3>Social Network</h3>\\n\\t  <p>Lorem ipsum dolor sit amet, consectetuer adipiscing elit, sed diam nonummy nibh euismod tincidunt ut laoreet dolore magna aliquam erat volutpat.</p>\\n\\t</div>\\n\\t<div class="clear"></div>\\n      </div>\\n    </div>\\n    <!-- end: Icon Box -->\\n\\n  </div>\\n  <!-- end: Icon Boxes -->\\n  <div class="clear"></div>\\n</div>\\n<!-- end: Row -->\\n\\n<hr>\\n\\n</div>\\n<!--end: Container-->\\n\', escape=False)'
p105
sI45
S'response.write(\'\\n      </div>\\n      <!--start: Container -->\\n      <div class="container">\\t\\t\\n      \\t<!-- start: Footer Menu -->\\n\\t<div id="footer-menu" class="hidden-tablet hidden-phone">\\n\\t  <!-- start: Container -->\\n\\t  <div class="container">\\n\\t    <!-- start: Row -->\\n\\t    <div class="row">\\n\\t      <!-- start: Footer Menu Logo -->\\n\\t      <div class="span1">\\n\\t\\t<div id="footer-menu-logo">\\n\\t\\t  \', escape=False)'
p106
sI46
S'response.write(response.logo)'
p107
sI47
S'response.write(\'\\n\\t\\t</div>\\n\\t      </div>\\n\\t      <!-- end: Footer Menu Logo -->\\n\\n\\t      <!-- start: Footer Menu Links-->\\n\\t      <div class="span10">\\n\\t\\t\\n\\t\\t<div id="footer-menu-links">\\n\\t\\t  <ul id="footer-nav">\\n\\t\\t    <li><a href="index.html">Inicio</a></li>\\n\\t\\t    <li><a href="about.html">Empresa</a></li>\\n\\t\\t    <li><a href="services.html">Productos</a></li>\\n\\t\\t    <li><a href="pricing.html">Servicios</a></li>\\n\\t\\t    <li><a href="contact.html">Contacto</a></li>\\n\\t\\t  </ul>\\n\\t\\t</div>\\n\\t      </div>\\n\\t      <!-- end: Footer Menu Links-->\\n\\n\\t      <!-- start: Footer Menu Back To Top -->\\n\\t      <div class="span1">\\n\\t\\t<div id="footer-menu-back-to-top">\\n\\t\\t  <a href="#"></a>\\n\\t\\t</div>\\n\\t      </div>\\n\\t      <!-- end: Footer Menu Back To Top -->\\n\\t    </div>\\n\\t    <!-- end: Row -->\\n\\t  </div>\\n\\t  <!-- end: Container  -->\\t\\n\\t</div>\\t\\n\\t<!-- end: Footer Menu -->\\n\\n\\t<!-- start: Footer -->\\n\\t<div id="footer">\\n\\t  <!-- start: Container -->\\n\\t  <div class="container">\\n\\t    <!-- start: Row -->\\n\\t    <div class="row">\\n\\t      <!-- start: About -->\\n\\t      <div class="span3">\\n\\t\\t<h3>Sobre nosotros</h3>\\n\\t\\t<p>\\n\\t\\t  Perez & Perez Distribuciones, es una empresa familiar creada en el norte de Argentina, cuyo objetivo es proveer a nuestros clientes productos alimenticios de primera calidad, basados en la calidad y trayectoria de dos de los mas grandes productores de conservas de nuestro pa\\xc3\\xads, Alco y Canale. \\n\\t\\t</p>\\n\\t      </div>\\n\\t      <!-- end: About -->\\n\\n\\t      <!-- start: Photo Stream -->\\n\\t      <div class="span3">\\n\\t\\t<h3>Nuestros productos</h3>\\n\\t\\t<div class="flickr-widget">\\n\\t\\t  <script type="text/javascript" src="http://www.flickr.com/badge_code_v2.gne?count=9&display=latest&size=s&layout=x&source=user&user=29609591@N08"></script>\\n\\t\\t  <div class="clear"></div>\\n\\t\\t</div>\\n\\t\\t\\n\\t      </div>\\n\\t      <!-- end: Photo Stream -->\\n\\t      \\n\\t      <div class="span6">\\n\\t\\t\\n\\t\\t<!-- start: Follow Us -->\\n\\t\\t<h3>Siguenos!</h3>\\n\\t\\t<ul class="social-grid">\\n\\t\\t  <li>\\n\\t\\t    <div class="social-item">\\t\\t\\t\\t\\n\\t\\t      <div class="social-info-wrap">\\n\\t\\t\\t<div class="social-info">\\n\\t\\t\\t  <div class="social-info-front social-facebook">\\n\\t\\t\\t    <a href="http://facebook.com"></a>\\n\\t\\t\\t  </div>\\n\\t\\t\\t  <div class="social-info-back social-facebook-hover">\\n\\t\\t\\t    <a href="http://facebook.com"></a>\\n\\t\\t\\t  </div>\\n\\t\\t\\t</div>\\n\\t\\t      </div>\\n\\t\\t    </div>\\n\\t\\t  </li>\\n\\t\\t</ul>\\n\\t\\t<!-- end: Follow Us -->\\n\\t\\t\\n\\t\\t<!-- start: Newsletter -->\\n\\t\\t<form id="newsletter">\\n\\t\\t  <h3>Novedades</h3>\\n\\t\\t  <p>Por favor dejanos tu direcci\\xc3\\xb3n de email si deseas tener novedades</p>\\n\\t\\t  <label for="newsletter_input">@:</label>\\n\\t\\t  <input type="text" id="newsletter_input"/>\\n\\t\\t  <input type="submit" id="newsletter_submit" value="submit">\\n\\t\\t</form>\\n\\t\\t<!-- end: Newsletter -->\\n\\t\\t\\n\\t      </div>\\n\\t      \\n\\t    </div>\\n\\t    <!-- end: Row -->\\t\\n\\t    \\n\\t  </div>\\n\\t  <!-- end: Container  -->\\n\\n\\t</div>\\n\\t<!-- end: Footer -->\\n\\t\\n      </div>\\n      <!-- end: Container  -->\\n\\n    </div>\\n    <!-- end: Wrapper  -->\\n\\n\\n    <!-- start: Copyright -->\\n    <div id="copyright">\\n      \\n      <!-- start: Container -->\\n      <div class="container">\\n\\t\\n\\t<p>\\n\\t  &copy; 2013, creativeLabs. <a href="http://bootstrapmaster.com" alt="Bootstrap Themes">Bootstrap Themes</a> Designed by BootstrapMaster in Poland <img src="/distribuidora/static/custom/img/poland.png" alt="Poland" style="margin-top:-4px">\\n\\t</p>\\n\\t\\n      </div>\\n      <!-- end: Container  -->\\n      \\n    </div>\\t\\n    <!-- end: Copyright -->\\n\\n    <!-- start: Java Script -->\\n    <!-- Placed at the end of the document so the pages load faster -->\\n    <script src="\', escape=False)'
p108
sI48
S"response.write(URL('static','js/bootstrap.js'))"
p109
sI49
S'response.write(\'"></script>\\n    <script src="\', escape=False)'
p110
sI30
S"    response.write(MENU(response.menu, _class='mobile-menu navbar' if is_mobile else 'nav',mobile=is_mobile,li_class='dropdown',ul_class='dropdown-menu'))"
p111
sI31
S"    response.write('\\n\\t\\t', escape=False)"
p112
ssg83
S'()'
p113
sg85
S'<module>'
p114
sasS'pyver'
p115
S'Python 2.7.8: /usr/bin/python (prefix: /usr)'
p116
sS'session'
p117
g57
(S's\x1a\x00\x00\x00<div><table></table></div>'
tRp118
sS'etype'
p119
S"<type 'exceptions.NameError'>"
p120
sS'date'
p121
S'Fri Aug  1 02:53:15 2014'
p122
sS'response'
p123
g57
(S's| \x00\x00<div><table><tr><td style="font-weight:bold;vertical-align:top;">body</td><td style="vertical-align:top;">:</td><td><div>&lt;cStringIO.StringO object at 0x7f364e7784c8&gt;</div></td></tr><tr><td style="font-weight:bold;vertical-align:top;">cookies</td><td style="vertical-align:top;">:</td><td><div><table><tr><td style="font-weight:bold;vertical-align:top;">session_id_distribuidora</td><td style="vertical-align:top;">:</td><td><div>127.0.0.1-961b3c77-1eeb-4346-ad85-67e667d8794d<table><tr><td style="font-weight:bold;vertical-align:top;">comment</td><td style="vertical-align:top;">:</td><td><div></div></td></tr><tr><td style="font-weight:bold;vertical-align:top;">domain</td><td style="vertical-align:top;">:</td><td><div></div></td></tr><tr><td style="font-weight:bold;vertical-align:top;">expires</td><td style="vertical-align:top;">:</td><td><div></div></td></tr><tr><td style="font-weight:bold;vertical-align:top;">httponly</td><td style="vertical-align:top;">:</td><td><div></div></td></tr><tr><td style="font-weight:bold;vertical-align:top;">max-age</td><td style="vertical-align:top;">:</td><td><div></div></td></tr><tr><td style="font-weight:bold;vertical-align:top;">path</td><td style="vertical-align:top;">:</td><td><div>/</div></td></tr><tr><td style="font-weight:bold;vertical-align:top;">secure</td><td style="vertical-align:top;">:</td><td><div></div></td></tr><tr><td style="font-weight:bold;vertical-align:top;">version</td><td style="vertical-align:top;">:</td><td><div></div></td></tr></table></div></td></tr></table></div></td></tr><tr><td style="font-weight:bold;vertical-align:top;">delimiters</td><td style="vertical-align:top;">:</td><td><div><table><tr><td><div>{{</div></td></tr><tr><td><div>}}</div></td></tr></table></div></td></tr><tr><td style="font-weight:bold;vertical-align:top;">files</td><td style="vertical-align:top;">:</td><td><div><table></table></div></td></tr><tr><td style="font-weight:bold;vertical-align:top;">flash</td><td style="vertical-align:top;">:</td><td><div></div></td></tr><tr><td style="font-weight:bold;vertical-align:top;">generic_patterns</td><td style="vertical-align:top;">:</td><td><div><table><tr><td><div>*</div></td></tr></table></div></td></tr><tr><td style="font-weight:bold;vertical-align:top;">google_analytics_id</td><td style="vertical-align:top;">:</td><td><div>None</div></td></tr><tr><td style="font-weight:bold;vertical-align:top;">headers</td><td style="vertical-align:top;">:</td><td><div><table><tr><td style="font-weight:bold;vertical-align:top;">X-Powered-By</td><td style="vertical-align:top;">:</td><td><div>web2py</div></td></tr></table></div></td></tr><tr><td style="font-weight:bold;vertical-align:top;">logo</td><td style="vertical-align:top;">:</td><td><div><a class="brand" href="/distribuidora/default/index"><img alt="P&amp;P distribuciones" src="/distribuidora/static/images/logosolo.png" width="" /></a></div></td></tr><tr><td style="font-weight:bold;vertical-align:top;">menu</td><td style="vertical-align:top;">:</td><td><div><table><tr><td><div><table><tr><td><div>Inicio</div></td></tr><tr><td><div>True</div></td></tr><tr><td><div>/distribuidora/default/index</div></td></tr><tr><td><div><table></table></div></td></tr></table></div></td></tr><tr><td><div><table><tr><td><div>Empresa</div></td></tr><tr><td><div>False</div></td></tr><tr><td><div>/distribuidora/default/servicios</div></td></tr><tr><td><div><table></table></div></td></tr></table></div></td></tr><tr><td><div><table><tr><td><div>Productos</div></td></tr><tr><td><div>False</div></td></tr><tr><td><div>/distribuidora/default/about</div></td></tr><tr><td><div><table></table></div></td></tr></table></div></td></tr><tr><td><div><table><tr><td><div>Servicios</div></td></tr><tr><td><div>False</div></td></tr><tr><td><div>/distribuidora/blog/index</div></td></tr><tr><td><div><table></table></div></td></tr></table></div></td></tr><tr><td><div><a class="contact"><i class="icon icon-envelope icon-white"></i>False#myModal</a></div></td></tr><tr><td><div><table><tr><td><div>Entrar</div></td></tr><tr><td><div>False</div></td></tr><tr><td><div>/distribuidora/default/user/login</div></td></tr><tr><td><div><table></table></div></td></tr></table></div></td></tr></table></div></td></tr><tr><td style="font-weight:bold;vertical-align:top;">meta</td><td style="vertical-align:top;">:</td><td><div><table><tr><td style="font-weight:bold;vertical-align:top;">author</td><td style="vertical-align:top;">:</td><td><div>Your Name &lt;you@example.com&gt;</div></td></tr><tr><td style="font-weight:bold;vertical-align:top;">generator</td><td style="vertical-align:top;">:</td><td><div>Web2py Web Framework</div></td></tr><tr><td style="font-weight:bold;vertical-align:top;">keywords</td><td style="vertical-align:top;">:</td><td><div>web2py, python, framework</div></td></tr></table></div></td></tr><tr><td style="font-weight:bold;vertical-align:top;">models_to_run</td><td style="vertical-align:top;">:</td><td><div><table><tr><td><div>^\\w+\\.py$</div></td></tr><tr><td><div>^default/\\w+\\.py$</div></td></tr><tr><td><div>^default/index/\\w+\\.py$</div></td></tr></table></div></td></tr><tr><td style="font-weight:bold;vertical-align:top;">postprocessing</td><td style="vertical-align:top;">:</td><td><div><table></table></div></td></tr><tr><td style="font-weight:bold;vertical-align:top;">session_client</td><td style="vertical-align:top;">:</td><td><div>127.0.0.1</div></td></tr><tr><td style="font-weight:bold;vertical-align:top;">session_cookie_compression_level</td><td style="vertical-align:top;">:</td><td><div>None</div></td></tr><tr><td style="font-weight:bold;vertical-align:top;">session_cookie_expires</td><td style="vertical-align:top;">:</td><td><div>None</div></td></tr><tr><td style="font-weight:bold;vertical-align:top;">session_cookie_key</td><td style="vertical-align:top;">:</td><td><div>None</div></td></tr><tr><td style="font-weight:bold;vertical-align:top;">session_data_name</td><td style="vertical-align:top;">:</td><td><div>session_data_distribuidora</div></td></tr><tr><td style="font-weight:bold;vertical-align:top;">session_file</td><td style="vertical-align:top;">:</td><td><div>&lt;open file &#x27;/home/marco/trabajo/experimental/web2py/applications/distribuidora/sessions/127.0.0.1-961b3c77-1eeb-4346-ad85-67e667d8794d&#x27;, mode &#x27;rb+&#x27; at 0x7f3680089a50&gt;</div></td></tr><tr><td style="font-weight:bold;vertical-align:top;">session_filename</td><td style="vertical-align:top;">:</td><td><div>/home/marco/trabajo/experimental/web2py/applications/distribuidora/sessions/127.0.0.1-961b3c77-1eeb-4346-ad85-67e667d8794d</div></td></tr><tr><td style="font-weight:bold;vertical-align:top;">session_hash</td><td style="vertical-align:top;">:</td><td><div>2396b7b9171d2fbfc5df1acfd0b5a08a</div></td></tr><tr><td style="font-weight:bold;vertical-align:top;">session_id</td><td style="vertical-align:top;">:</td><td><div>127.0.0.1-961b3c77-1eeb-4346-ad85-67e667d8794d</div></td></tr><tr><td style="font-weight:bold;vertical-align:top;">session_id_name</td><td style="vertical-align:top;">:</td><td><div>session_id_distribuidora</div></td></tr><tr><td style="font-weight:bold;vertical-align:top;">session_locked</td><td style="vertical-align:top;">:</td><td><div>True</div></td></tr><tr><td style="font-weight:bold;vertical-align:top;">session_masterapp</td><td style="vertical-align:top;">:</td><td><div>distribuidora</div></td></tr><tr><td style="font-weight:bold;vertical-align:top;">session_new</td><td style="vertical-align:top;">:</td><td><div>False</div></td></tr><tr><td style="font-weight:bold;vertical-align:top;">session_storage_type</td><td style="vertical-align:top;">:</td><td><div>file</div></td></tr><tr><td style="font-weight:bold;vertical-align:top;">status</td><td style="vertical-align:top;">:</td><td><div>200</div></td></tr><tr><td style="font-weight:bold;vertical-align:top;">subtitle</td><td style="vertical-align:top;">:</td><td><div><h4 class="span4">Distribuciones Salta - Jujuy</h4></div></td></tr><tr><td style="font-weight:bold;vertical-align:top;">title</td><td style="vertical-align:top;">:</td><td><div>P &amp; P Distribuciones</div></td></tr><tr><td style="font-weight:bold;vertical-align:top;">view</td><td style="vertical-align:top;">:</td><td><div>default/index.html</div></td></tr></table></div>'
tRp124
sS'locals'
p125
(dp126
S'Service'
p127
S"<class 'gluon.tools.Service'>"
p128
sS'OBJECT'
p129
S"<class 'gluon.html.OBJECT'>"
p130
sS'SQLDB'
p131
S"<class 'gluon.dal.DAL'>"
p132
sg117
S"<Storage {'_formkey[portada/create]': ['1f98daef...orage {'version': '32.0', 'name': 'Firefox'}>}>}>"
p133
sS'LINK'
p134
S"<class 'gluon.html.LINK'>"
p135
sS'BR'
p136
S"<class 'gluon.html.BR'>"
p137
sS'local_import'
p138
S'<function <lambda>>'
p139
sS'OPTGROUP'
p140
S"<class 'gluon.html.OPTGROUP'>"
p141
sS'__package__'
p142
S'None'
p143
sS'PRE'
p144
S"<class 'gluon.html.PRE'>"
p145
sS'IS_INT_IN_RANGE'
p146
S"<class 'gluon.validators.IS_INT_IN_RANGE'>"
p147
sS'IS_LOWER'
p148
S"<class 'gluon.validators.IS_LOWER'>"
p149
sS'IS_STRONG'
p150
S"<class 'gluon.validators.IS_STRONG'>"
p151
sS'cache'
p152
S'<gluon.cache.Cache object>'
p153
sS'IS_IN_DB'
p154
S"<class 'gluon.validators.IS_IN_DB'>"
p155
sS'TAG'
p156
S'<gluon.html.__TAG__ object>'
p157
sS'SQLField'
p158
S"<class 'gluon.dal.Field'>"
p159
sS'mail'
p160
S'<gluon.tools.Mail object>'
p161
sS'BODY'
p162
S"<class 'gluon.html.BODY'>"
p163
sS'IS_DATE_IN_RANGE'
p164
S"<class 'gluon.validators.IS_DATE_IN_RANGE'>"
p165
sS'IFRAME'
p166
S"<class 'gluon.html.IFRAME'>"
p167
sS'URL'
p168
S'<function URL>'
p169
sS'__file__'
p170
S"'/home/marco/trabajo/experimental/web2py/applications/distribuidora/views/default/index.html'"
p171
sS'db'
p172
S'<DAL uri="sqlite://storage.sqlite">'
p173
sS'auth'
p174
S'<gluon.tools.Auth object>'
p175
sS'P'
S"<class 'gluon.html.P'>"
p176
sS'TFOOT'
p177
S"<class 'gluon.html.TFOOT'>"
p178
sS'XHTML'
p179
S"<class 'gluon.html.XHTML'>"
p180
sS'last_option'
p181
S"(<lazyT 'Entrar'>, False, '/distribuidora/default/user/login', [])"
p182
sS'ON'
p183
S'True'
p184
sS'OL'
p185
S"<class 'gluon.html.OL'>"
p186
sS'TEXTAREA'
p187
S"<class 'gluon.html.TEXTAREA'>"
p188
sS'portada'
p189
S'<Rows (5)>'
p190
sS'MENU'
p191
S"<class 'gluon.html.MENU'>"
p192
sS'IS_IMAGE'
p193
S"<class 'gluon.validators.IS_IMAGE'>"
p194
sS'EM'
p195
S"<class 'gluon.html.EM'>"
p196
sS'CODE'
p197
S"<class 'gluon.html.CODE'>"
p198
sS'HTTP'
p199
S"<class 'gluon.http.HTTP'>"
p200
sS'imagen'
p201
S"<Row {'imagen': 'portada.imagen.a69645fe9b799013...ferencia... :P', 'titulo': 'Duraznos', 'id': 1L}>"
p202
sS'HR'
p203
S"<class 'gluon.html.HR'>"
p204
sS'IS_DATETIME'
p205
S"<class 'gluon.validators.IS_DATETIME'>"
p206
sS'STYLE'
p207
S"<class 'gluon.html.STYLE'>"
p208
sS'LABEL'
p209
S"<class 'gluon.html.LABEL'>"
p210
sS'CLEANUP'
p211
S"<class 'gluon.validators.CLEANUP'>"
p212
sS'plugins'
p213
S'<gluon.tools.PluginManager object>'
p214
sS'SELECT'
p215
S"<class 'gluon.html.SELECT'>"
p216
sS'use_janrain'
p217
S'<function use_janrain>'
p218
sS'CENTER'
p219
S"<class 'gluon.html.CENTER'>"
p220
sS'prettydate'
p221
S'<function prettydate>'
p222
sS'Crud'
p223
S"<class 'gluon.tools.Crud'>"
p224
sS'Auth'
p225
S"<class 'gluon.tools.Auth'>"
p226
sS'__builtins__'
p227
S"{'ArithmeticError': <type 'exceptions.ArithmeticError'>, 'AssertionError': <type 'exceptions.AssertionError'>, 'AttributeError': <type 'exceptions.AttributeError'>, 'BaseException': <type 'exceptions.BaseException'>, 'BufferError': <type 'exceptions.BufferError'>, 'BytesWarning': <type 'exceptions.BytesWarning'>, 'DeprecationWarning': <type 'exceptions.DeprecationWarning'>, 'EOFError': <type 'exceptions.EOFError'>, 'Ellipsis': Ellipsis, 'EnvironmentError': <type 'exceptions.EnvironmentError'>, ...}"
p228
sS'HTML'
p229
S"<class 'gluon.html.HTML'>"
p230
sS'SQLFORM'
p231
S"<class 'gluon.sqlhtml.SQLFORM'>"
p232
sS'LOAD'
p233
S'<function LOAD>'
p234
sS'redirect'
p235
S'<function redirect>'
p236
sS'FIELDSET'
p237
S"<class 'gluon.html.FIELDSET'>"
p238
sS'IS_EQUAL_TO'
p239
S"<class 'gluon.validators.IS_EQUAL_TO'>"
p240
sS'embed64'
p241
S'<function embed64>'
p242
sS'IS_LIST_OF'
p243
S"<class 'gluon.validators.IS_LIST_OF'>"
p244
sS'INPUT'
p245
S"<class 'gluon.html.INPUT'>"
p246
sS'EMBED'
p247
S"<class 'gluon.html.EMBED'>"
p248
sS'H2'
p249
S"<class 'gluon.html.H2'>"
p250
sS'H3'
p251
S"<class 'gluon.html.H3'>"
p252
sS'BUTTON'
p253
S"<class 'gluon.html.BUTTON'>"
p254
sS'H1'
p255
S"<class 'gluon.html.H1'>"
p256
sS'H6'
p257
S"<class 'gluon.html.H6'>"
p258
sS'H4'
p259
S"<class 'gluon.html.H4'>"
p260
sS'H5'
p261
S"<class 'gluon.html.H5'>"
p262
sS'UL'
p263
S"<class 'gluon.html.UL'>"
p264
sS'IS_UPPER'
p265
S"<class 'gluon.validators.IS_UPPER'>"
p266
sS'xmlescape'
p267
S'<function xmlescape>'
p268
sS'IS_TIME'
p269
S"<class 'gluon.validators.IS_TIME'>"
p270
sS'OPTION'
p271
S"<class 'gluon.html.OPTION'>"
p272
sS'TITLE'
p273
S"<class 'gluon.html.TITLE'>"
p274
sS'CRYPT'
p275
S"<class 'gluon.validators.CRYPT'>"
p276
sS'IS_EMPTY_OR'
p277
S"<class 'gluon.validators.IS_EMPTY_OR'>"
p278
sS'MARKMIN'
p279
S"<class 'gluon.html.MARKMIN'>"
p280
sS'__name__'
p281
S"'__restricted__'"
p282
sS'STRONG'
p283
S"<class 'gluon.html.STRONG'>"
p284
sS'COL'
p285
S"<class 'gluon.html.COL'>"
p286
sS'service'
p287
S'<gluon.tools.Service object>'
p288
sS'SCRIPT'
p289
S"<class 'gluon.html.SCRIPT'>"
p290
sS'is_mobile'
p291
S'False'
p292
sS'TABLE'
p293
S"<class 'gluon.html.TABLE'>"
p294
sS'IS_IPV4'
p295
S"<class 'gluon.validators.IS_IPV4'>"
p296
sS'IS_LENGTH'
p297
S"<class 'gluon.validators.IS_LENGTH'>"
p298
sS'IS_IPV6'
p299
S"<class 'gluon.validators.IS_IPV6'>"
p300
sS'XML'
p301
S"<class 'gluon.html.XML'>"
p302
sS'B'
S"<class 'gluon.html.B'>"
p303
sS'IMG'
p304
S"<class 'gluon.html.IMG'>"
p305
sS'SQLTABLE'
p306
S"<class 'gluon.sqlhtml.SQLTABLE'>"
p307
sS'IS_MATCH'
p308
S"<class 'gluon.validators.IS_MATCH'>"
p309
sS'IS_ALPHANUMERIC'
p310
S"<class 'gluon.validators.IS_ALPHANUMERIC'>"
p311
sS'SPAN'
p312
S"<class 'gluon.html.SPAN'>"
p313
sS'IS_JSON'
p314
S"<class 'gluon.validators.IS_JSON'>"
p315
sS'IS_IPADDRESS'
p316
S"<class 'gluon.validators.IS_IPADDRESS'>"
p317
sS'IS_SLUG'
p318
S"<class 'gluon.validators.IS_SLUG'>"
p319
sS'BEAUTIFY'
p320
S"<class 'gluon.html.BEAUTIFY'>"
p321
sS'META'
p322
S"<class 'gluon.html.META'>"
p323
sS'IS_DATE'
p324
S"<class 'gluon.validators.IS_DATE'>"
p325
sS'IS_EMAIL'
p326
S"<class 'gluon.validators.IS_EMAIL'>"
p327
sS'IS_NOT_EMPTY'
p328
S"<class 'gluon.validators.IS_NOT_EMPTY'>"
p329
sS'IS_FLOAT_IN_RANGE'
p330
S"<class 'gluon.validators.IS_FLOAT_IN_RANGE'>"
p331
sS'TBODY'
p332
S"<class 'gluon.html.TBODY'>"
p333
sS'CAT'
p334
S"<class 'gluon.html.CAT'>"
p335
sS'Field'
p336
S"<class 'gluon.dal.Field'>"
p337
sS'IS_LIST_OF_EMAILS'
p338
S"<class 'gluon.validators.IS_LIST_OF_EMAILS'>"
p339
sS'DIV'
p340
S"<class 'gluon.html.DIV'>"
p341
sS'LEGEND'
p342
S"<class 'gluon.html.LEGEND'>"
p343
sS'COLGROUP'
p344
S"<class 'gluon.html.COLGROUP'>"
p345
sS'DAL'
p346
S"<class 'gluon.dal.DAL'>"
p347
sS'TT'
p348
S"<class 'gluon.html.TT'>"
p349
sS'TR'
p350
S"<class 'gluon.html.TR'>"
p351
sS'LI'
p352
S"<class 'gluon.html.LI'>"
p353
sS'TH'
p354
S"<class 'gluon.html.TH'>"
p355
sS'TD'
p356
S"<class 'gluon.html.TD'>"
p357
sS'PluginManager'
p358
S"<class 'gluon.tools.PluginManager'>"
p359
sS'IS_URL'
p360
S"<class 'gluon.validators.IS_URL'>"
p361
sS'A'
S"<class 'gluon.html.A'>"
p362
sS'HEAD'
p363
S"<class 'gluon.html.HEAD'>"
p364
sS'IS_DATETIME_IN_RANGE'
p365
S"<class 'gluon.validators.IS_DATETIME_IN_RANGE'>"
p366
sS'FORM'
p367
S"<class 'gluon.html.FORM'>"
p368
sS'I'
S"<class 'gluon.html.I'>"
p369
sS'crud'
p370
S'<gluon.tools.Crud object>'
p371
sS'IS_NOT_IN_DB'
p372
S"<class 'gluon.validators.IS_NOT_IN_DB'>"
p373
sg123
S"<Storage {'body': <cStringIO.StringO object at 0...t 0x7f364e8d0ed8>, 'view': 'default/index.html'}>"
p374
sS'THEAD'
p375
S"<class 'gluon.html.THEAD'>"
p376
sS'ANY_OF'
p377
S"<class 'gluon.validators.ANY_OF'>"
p378
sS'IS_NULL_OR'
p379
S"<class 'gluon.validators.IS_EMPTY_OR'>"
p380
sg56
S"<Storage {'_vars': None, 'function': 'index', 'c...xperimental/web2py/applications/distribuidora/'}>"
p381
sS'IS_EXPR'
p382
S"<class 'gluon.validators.IS_EXPR'>"
p383
sS'T'
S'<gluon.languages.translator object>'
p384
sS'IS_IN_SET'
p385
S"<class 'gluon.validators.IS_IN_SET'>"
p386
sS'IS_UPLOAD_FILENAME'
p387
S"<class 'gluon.validators.IS_UPLOAD_FILENAME'>"
p388
sS'IS_DECIMAL_IN_RANGE'
p389
S"<class 'gluon.validators.IS_DECIMAL_IN_RANGE'>"
p390
sssS'traceback'
p391
S'Traceback (most recent call last):\n  File "/home/marco/trabajo/experimental/web2py/gluon/restricted.py", line 221, in restricted\n    exec ccode in environment\n  File "/home/marco/trabajo/experimental/web2py/applications/distribuidora/views/default/index.html", line 39, in <module>\nNameError: name \'imagenes\' is not defined\n'
p392
s.