(dp1
S'output'
p2
S"<type 'exceptions.AttributeError'> 'Rows' object has no attribute 'count'"
p3
sS'layer'
p4
S'/home/marco/trabajo/experimental/web2py/applications/distribuidora/views/adminweb/mensajes.html'
p5
sS'code'
p6
S'response.write(\'<!DOCTYPE html>\\r\\n<html>\\r\\n\\r\\n  <head>\\r\\n\\r\\n    <meta charset="utf-8">\\r\\n    <meta name="viewport" content="width=device-width, initial-scale=1.0">\\r\\n    <link rel="shortcut icon" href="\', escape=False)\nresponse.write(URL(\'static\',\'images/favicon.ico\'))\nresponse.write(\'" type="image/x-icon">\\r\\n    <link rel="apple-touch-icon" href="\', escape=False)\nresponse.write(URL(\'static\',\'images/favicon.png\'))\nresponse.write(\'">\\r\\n\\r\\n    <title>P&P Panel de administracion</title>\\r\\n\\r\\n    <!-- Core CSS - Include with every page -->\\r\\n    <link href="\', escape=False)\nresponse.write(URL(\'static\',\'admin/css/bootstrap.min.css\'))\nresponse.write(\'" rel="stylesheet">\\r\\n    <link href="\', escape=False)\nresponse.write(URL(\'static\',\'admin/font-awesome/css/font-awesome.css\'))\nresponse.write(\'" rel="stylesheet">\\r\\n\\r\\n    <!-- Page-Level Plugin CSS - Dashboard -->\\r\\n    <link href="\', escape=False)\nresponse.write(URL(\'static\',\'admin/css/plugins/morris/morris-0.4.3.min.css\'))\nresponse.write(\'" rel="stylesheet">\\r\\n    <link href="\', escape=False)\nresponse.write(URL(\'static\',\'admin/css/plugins/timeline/timeline.css\'))\nresponse.write(\'" rel="stylesheet">\\r\\n\\r\\n    <!-- SB Admin CSS - Include with every page -->\\r\\n    <link href="\', escape=False)\nresponse.write(URL(\'static\',\'admin/css/sb-admin.css\'))\nresponse.write(\'" rel="stylesheet">\\r\\n    <link href="\', escape=False)\nresponse.write(URL(\'static\',\'css/admin.css\'))\nresponse.write(\'" rel="stylesheet">\\r\\n    <link href="\', escape=False)\nresponse.write(URL(\'static\',\'css/web2py.css\'))\nresponse.write(\'" rel="stylesheet">\\r\\n    <script src="\', escape=False)\nresponse.write(URL(\'static\',\'js/datables/media/jquery.dataTables.min.js\'))\nresponse.write(\'"></script>\\r\\n    <script src="\', escape=False)\nresponse.write(URL(\'static\',\'plugin_ckeditor/ckeditor.js\'))\nresponse.write(\'"></script>\\r\\n    <script src="\', escape=False)\nresponse.write(URL(\'static\',\'plugin_ckeditor/adapters/jquery.js\'))\nresponse.write(\'"></script>\\r\\n  </head>\\r\\n\\r\\n  <body>\\r\\n\\r\\n    <div id="wrapper">\\r\\n\\r\\n      <nav class="navbar navbar-default navbar-fixed-top" role="navigation" style="margin-bottom: 0">\\r\\n        <div class="navbar-header">\\r\\n          <button type="button" class="navbar-toggle" data-toggle="collapse" data-target=".sidebar-collapse">\\r\\n            <span class="sr-only">Toggle navigation</span>\\r\\n            <span class="icon-bar"></span>\\r\\n            <span class="icon-bar"></span>\\r\\n            <span class="icon-bar"></span>\\r\\n          </button>\\r\\n\\t  \', escape=False)\nresponse.write(response.logo)\nresponse.write(\'\\r\\n        </div>\\r\\n        <!-- /.navbar-header -->\\r\\n        <ul class="nav navbar-top-links navbar-right">\\r\\n\\t  <li><a href=""><span class="fa fa-cogs"></span> aca va una opcion</a></li>\\r\\n        </ul>\\r\\n        <!-- /.navbar-top-links -->\\r\\n\\r\\n        <div class="navbar-default navbar-static-side" role="navigation">\\r\\n          <div class="sidebar-collapse">\\r\\n\\t    <h4 class="text-center">Administrar</h4>\\r\\n            <ul class="nav" id="side-menu">\\r\\n\\t      <li><a href="\', escape=False)\nresponse.write(URL(\'adminweb\',\'index\'))\nresponse.write(\'"><span class="fa fa-home"></span> Inicio</a></li>\\r\\n\\t      <li><a href="\', escape=False)\nresponse.write(URL(\'adminweb\',\'empresa\'))\nresponse.write(\'"><span class="fa fa-building"></span>  Empresa</a></li>\\r\\n              <li><a href="\', escape=False)\nresponse.write(URL(\'adminweb\',\'productos\'))\nresponse.write(\'"><span class="fa fa-cubes"></span> Productos</a></li>\\r\\n\\t      <li><a href="\', escape=False)\nresponse.write(URL(\'adminweb\',\'mensajes\'))\nresponse.write(\'"><span class="fa fa-envelope"></span> Mensajes</a></li>\\r\\n\\t      <li><a href="\', escape=False)\nresponse.write(URL(\'adminweb\',\'slideshow\'))\nresponse.write(\'"><span class="fa fa-picture-o"></span> Slideshow</a></li>\\r\\n\\t      <li><a href="\', escape=False)\nresponse.write(URL(\'adminweb\',\'misdatos\'))\nresponse.write(\'"><span class="fa fa-wrench"></span> Mis datos</a></li>\\r\\n\\t      <li><a href="\', escape=False)\nresponse.write(URL(\'default\',\'user/logout\'))\nresponse.write(\'"><span class="fa fa-power-off"></span> Salir</a></li>\\r\\n            </ul>\\r\\n            <!-- /#side-menu -->\\r\\n          </div>\\r\\n          <!-- /.sidebar-collapse -->\\r\\n        </div>\\r\\n        <!-- /.navbar-static-side -->\\r\\n      </nav>\\r\\n\\r\\n      <div id="page-wrapper">\\r\\n\\t\', escape=False)\nresponse.write(\'\\n\\n<h2>Mensajes recibidos por la web</h2>\\n\\n<table class="table" id="tabla">\\n  <thead>\\n    <tr>\\n      <th>Nombre</th>\\n      <th>Email</th>\\n      <th>Fecha</th>\\n      <th>Ver</th>\\n    </tr>\\n  </thead>\\n  <tbody>\\n    \', escape=False)\nfor mensaje in mensajes:\n    response.write(\'\\n    <tr>\\n      <td>\', escape=False)\n    response.write(mensaje.nombre)\n    response.write(\'</td>\\n      <td>\', escape=False)\n    response.write(mensaje.email)\n    response.write(\'</td>\\n      <td>\', escape=False)\n    response.write(mensaje.fecha)\n    response.write(\'</td>\\n      \', escape=False)\n    if not(db((db.leidos.mensaje==mensaje.id)&(db.leidos.usuario==session.auth.user.id)).select()):\n        response.write(\'\\n       <td><a href="\', escape=False)\n        response.write(URL(\'adminweb\',\'leermensaje\', vars=dict(id=mensaje.id)))\n        response.write(\'" class="noleido btn btn-primary btn-large"><span class="badge pull-right">Nuevo</span> Leer</a></td>\\n      \', escape=False)\n    else:\n        response.write(\'\\n       <td><a href="\', escape=False)\n        response.write(URL(\'adminweb\',\'leermensaje\', vars=dict(id=mensaje.id)))\n        response.write(\'" class="btn btn-primary"><span class="fa fa-eye"></span> Leer</a></td>\\n      \', escape=False)\n        pass\n    response.write(\'\\n    </tr>\\n    \', escape=False)\n    pass\nresponse.write(\'\\n  </tbody>\\n  \', escape=False)\nresponse.write(mensajes.count())\nresponse.write(\'\\n</table>\\n\', escape=False)\nresponse.write(\'\\r\\n      </div>\\r\\n      <!-- /#page-wrapper -->\\r\\n\\r\\n    </div>\\r\\n    <!-- /#wrapper -->\\r\\n\\r\\n    <!-- Core Scripts - Include with every page -->\\r\\n    <script src="\', escape=False)\nresponse.write(URL(\'static\',\'admin/js/jquery-1.10.2.js\'))\nresponse.write(\'"></script>\\r\\n    <script src="\', escape=False)\nresponse.write(URL(\'static\',\'admin/js/bootstrap.min.js\'))\nresponse.write(\'"></script>\\r\\n    <script src="\', escape=False)\nresponse.write(URL(\'static\',\'admin/js/plugins/metisMenu/jquery.metisMenu.js\'))\nresponse.write(\'"></script>\\r\\n\\r\\n    <!-- Page-Level Plugin Scripts - Dashboard -->\\r\\n    <!-- <script src="\', escape=False)\nresponse.write(URL(\'static\',\'admin/js/plugins/morris/raphael-2.1.0.min.js\'))\nresponse.write(\'"></script> -->\\r\\n    <!-- <script src="\', escape=False)\nresponse.write(URL(\'static\',\'admin/js/plugins/morris/morris.js\'))\nresponse.write(\'"></script> -->\\r\\n\\r\\n    <!-- SB Admin Scripts - Include with every page -->\\r\\n    <script src="\', escape=False)\nresponse.write(URL(\'static\',\'admin/js/sb-admin.js\'))\nresponse.write(\'"></script>\\r\\n    <script src="\', escape=False)\nresponse.write(URL(\'static\',\'js/web2py.js\'))\nresponse.write(\'"></script>\\r\\n    <script src="\', escape=False)\nresponse.write(URL(\'static\',\'plugin_ckeditor/ckeditor.js\'))\nresponse.write(\'"></script>\\r\\n    <script src="\', escape=False)\nresponse.write(URL(\'static\',\'plugin_ckeditor/adapters/jquery.js\'))\nresponse.write(\'"></script>\\r\\n    <!-- Page-Level Demo Scripts - Dashboard - Use for reference -->\\r\\n    <!-- <script src="\', escape=False)\nresponse.write(URL(\'static\',\'admin/js/demo/dashboard-demo.js\'))\nresponse.write(\'"></script> -->\\r\\n    \\r\\n    <script src="\', escape=False)\nresponse.write(URL(\'static\',\'js/datatables/media/js/jquery.dataTables.min.js\'))\nresponse.write(\'"></script>\\r\\n    <script src="\', escape=False)\nresponse.write(URL(\'static\',\'js/admin.js\'))\nresponse.write(\'"></script>\\r\\n  </body>\\r\\n\\r\\n</html>\\r\\n\', escape=False)'
p7
sS'snapshot'
p8
(dp9
sS'traceback'
p10
S'Traceback (most recent call last):\n  File "/home/marco/trabajo/experimental/web2py/gluon/restricted.py", line 221, in restricted\n    exec ccode in environment\n  File "/home/marco/trabajo/experimental/web2py/applications/distribuidora/views/adminweb/mensajes.html", line 63, in <module>\nAttributeError: \'Rows\' object has no attribute \'count\'\n'
p11
s.