(dp1
S'output'
p2
S"<type 'exceptions.AttributeError'> 'DAL' object has no attribute 'contacto'"
p3
sS'layer'
p4
S'/home/marco/trabajo/experimental/web2py/applications/distribuidora/views/default/index.html'
p5
sS'code'
p6
S'response.write(\'<!DOCTYPE html>\\n<html lang="en">\\n  <head>\\n\\n    <!-- start: Meta -->\\n    <meta charset="utf-8">\\n    <title>\', escape=False)\nresponse.write(response.title or \'\')\nresponse.write(\'</title> \\n    <meta name="description" content="FreeME:Bootstrap Theme"/>\\n    <meta name="keywords" content="Template, Theme, web, html5, css3" />\\n    <meta name="author" content="\\xc5\\x81ukasz Holeczek from creativeLabs"/>\\n    <!-- end: Meta -->\\n    \\n    <!-- start: Mobile Specific -->\\n    <meta name="viewport" content="width=device-width, initial-scale=1, maximum-scale=1">\\n    <!-- end: Mobile Specific -->\\n    \\n    <!-- start: Facebook Open Graph -->\\n    <meta property="og:title" content=""/>\\n    <meta property="og:description" content=""/>\\n    <meta property="og:type" content=""/>\\n    <meta property="og:url" content=""/>\\n    <meta property="og:image" content=""/>\\n    <!-- end: Facebook Open Graph -->\\n\\n    <!-- start: CSS -->\\n    <link href="\', escape=False)\nresponse.write(URL(\'static\',\'custom/css/bootstrap.css\'))\nresponse.write(\'" rel="stylesheet">\\n    <link href="\', escape=False)\nresponse.write(URL(\'static\',\'custom/css/bootstrap-responsive.css\'))\nresponse.write(\'" rel="stylesheet">\\n    <link href="\', escape=False)\nresponse.write(URL(\'static\',\'custom/css/style.css\'))\nresponse.write(\'" rel="stylesheet">\\n    <link rel="stylesheet" type="text/css" href="http://fonts.googleapis.com/css?family=Droid+Sans:400,700">\\n    <link rel="stylesheet" type="text/css" href="http://fonts.googleapis.com/css?family=Droid+Serif">\\n    <link rel="stylesheet" type="text/css" href="http://fonts.googleapis.com/css?family=Boogaloo">\\n    <link rel="stylesheet" type="text/css" href="http://fonts.googleapis.com/css?family=Economica:700,400italic">\\n    <!-- end: CSS -->\\n\\n    <!-- Le HTML5 shim, for IE6-8 support of HTML5 elements -->\\n    <!--[if lt IE 9]>\\n\\t<script src="http://html5shim.googlecode.com/svn/trunk/html5.js"></script>\\n\\t<![endif]-->\\n\\n  </head>\\n  <body>\\n    \\n    <!--start: Wrapper -->\\n    <div id="wrapper">\\n      \\n      <!--start: Container -->\\n      <div class="container">\\n\\t\\n\\t\\n\\t<!--start: Header -->\\n\\t<header>\\n\\t  \\n\\t  <!--start: Row -->\\n\\t  <div class="row">\\n\\t    \\n\\t    <!--start: Logo -->\\n\\t    <div class="logo span4">\\n\\t      <a class="brand" href="#"><img src="/distribuidora/static/custom/img/logo.png"></a>\\n\\t    </div>\\n\\t    <!--end: Logo -->\\n\\t    \\n\\t    <!--start: Social Links -->\\n\\t    <div class="span8">\\n\\t      <div id="social-links">\\n\\t\\t<ul class="social-small-grid">\\n\\t\\t  <li>\\n\\t\\t    <div class="social-small-item">\\t\\t\\t\\t\\n\\t\\t      <div class="social-small-info-wrap">\\n\\t\\t\\t<div class="social-small-info">\\n\\t\\t\\t  <div class="social-small-info-front social-small-twitter">\\n\\t\\t\\t    <a href="http://twitter.com"></a>\\n\\t\\t\\t  </div>\\n\\t\\t\\t  <div class="social-small-info-back social-small-twitter-hover">\\n\\t\\t\\t    <a href="http://twitter.com"></a>\\n\\t\\t\\t  </div>\\t\\n\\t\\t\\t</div>\\n\\t\\t      </div>\\n\\t\\t    </div>\\n\\t\\t  </li>\\n\\t\\t  <li>\\n\\t\\t    <div class="social-small-item">\\t\\t\\t\\t\\n\\t\\t      <div class="social-small-info-wrap">\\n\\t\\t\\t<div class="social-small-info">\\n\\t\\t\\t  <div class="social-small-info-front social-small-facebook">\\n\\t\\t\\t    <a href="http://facebook.com"></a>\\n\\t\\t\\t  </div>\\n\\t\\t\\t  <div class="social-small-info-back social-small-facebook-hover">\\n\\t\\t\\t    <a href="http://facebook.com"></a>\\n\\t\\t\\t  </div>\\t\\n\\t\\t\\t</div>\\n\\t\\t      </div>\\n\\t\\t    </div>\\n\\t\\t  </li>\\n\\t\\t  <li>\\n\\t\\t    <div class="social-small-item">\\t\\t\\t\\t\\n\\t\\t      <div class="social-small-info-wrap">\\n\\t\\t\\t<div class="social-small-info">\\n\\t\\t\\t  <div class="social-small-info-front social-small-dribbble">\\n\\t\\t\\t    <a href="http://dribbble.com"></a>\\n\\t\\t\\t  </div>\\n\\t\\t\\t  <div class="social-small-info-back social-small-dribbble-hover">\\n\\t\\t\\t    <a href="http://dribbble.com"></a>\\n\\t\\t\\t  </div>\\t\\n\\t\\t\\t</div>\\n\\t\\t      </div>\\n\\t\\t    </div>\\n\\t\\t  </li>\\n\\t\\t  <li>\\n\\t\\t    <div class="social-small-item">\\t\\t\\t\\t\\n\\t\\t      <div class="social-small-info-wrap">\\n\\t\\t\\t<div class="social-small-info">\\n\\t\\t\\t  <div class="social-small-info-front social-small-flickr">\\n\\t\\t\\t    <a href="http://flickr.com"></a>\\n\\t\\t\\t  </div>\\n\\t\\t\\t  <div class="social-small-info-back social-small-flickr-hover">\\n\\t\\t\\t    <a href="http://flickr.com"></a>\\n\\t\\t\\t  </div>\\t\\n\\t\\t\\t</div>\\n\\t\\t      </div>\\n\\t\\t    </div>\\n\\t\\t  </li>\\n\\t\\t</ul>\\n\\t      </div>\\n\\t    </div>\\n\\t    <!--end: Social Links -->\\n\\t    \\n\\t  </div>\\n\\t  <!--end: Row -->\\n\\t  \\n\\t</header>\\n\\t<!--end: Header-->\\n\\t\\n\\t<!--start: Navigation-->\\t\\n\\t<div class="navbar navbar-inverse">\\n    \\t  <div class="navbar-inner">\\n            <div class="container">\\n\\t      \', escape=False)\nis_mobile=request.user_agent().is_mobile\nresponse.write(\'\\n              <a class="btn btn-navbar" data-toggle="collapse" data-target=".nav-collapse">\\n            \\t<span class="icon-bar"></span>\\n            \\t<span class="icon-bar"></span>\\n            \\t<span class="icon-bar"></span>\\n              </a>\\n\\t      <div class="\', escape=False)\nresponse.write(\'nav-collapse\' if is_mobile else \'nav\')\nresponse.write(\'">\\n\\t\\t\', escape=False)\nif response.menu:\n    response.write(\'\\n\\t\\t\', escape=False)\n    response.write(MENU(response.menu, _class=\'mobile-menu navbar\' if is_mobile else \'nav\',mobile=is_mobile,li_class=\'dropdown\',ul_class=\'dropdown-menu\'))\n    response.write(\'\\n\\t\\t\', escape=False)\n    pass\nresponse.write(\'\\n              </div><!--/.nav-collapse -->\\n              <!-- <div class="nav-collapse collapse"> -->\\n              <!-- \\t<\\\\!-- <ul class="nav"> -\\\\-> -->\\n              <!-- \\t<\\\\!--   <li class="active"><a href="index.html">Home</a></li> -\\\\-> -->\\n              <!-- \\t<\\\\!--   <li><a href="about.html">About</a></li> -\\\\-> -->\\n\\t      <!-- \\t<\\\\!--   <li><a href="services.html">Services</a></li> -\\\\-> -->\\n\\t      <!-- \\t<\\\\!--   <li><a href="pricing.html">Pricing</a></li> -\\\\-> -->\\n              <!-- \\t<\\\\!--   <li><a href="contact.html">Contact</a></li> -\\\\-> -->\\n              <!-- \\t<\\\\!--   <li class="dropdown"> -\\\\-> -->\\n              <!--   <\\\\!--     <a href="#" class="dropdown-toggle" data-toggle="dropdown">Dropdown <b class="caret"></b></a> -\\\\-> -->\\n              <!--   <\\\\!--     <ul class="dropdown-menu"> -\\\\-> -->\\n              <!--   <\\\\!--       <li><a href="#">Action</a></li> -\\\\-> -->\\n              <!--   <\\\\!--       <li><a href="#">Another action</a></li> -\\\\-> -->\\n              <!--   <\\\\!--       <li><a href="#">Something else here</a></li> -\\\\-> -->\\n              <!--   <\\\\!--       <li class="divider"></li> -\\\\-> -->\\n              <!--   <\\\\!--       <li class="nav-header">Nav header</li> -\\\\-> -->\\n              <!--   <\\\\!--       <li><a href="#">Separated link</a></li> -\\\\-> -->\\n              <!--   <\\\\!--       <li><a href="#">One more separated link</a></li> -\\\\-> -->\\n              <!--   <\\\\!--     </ul> -\\\\-> -->\\n              <!-- \\t<\\\\!--   </li> -\\\\-> -->\\n              <!-- \\t<\\\\!-- </ul> -\\\\-> -->\\n\\t      <!-- \\t\', escape=False)\nresponse.write(MENU(response.menu, ul_class="nav", li_class="navbar"))\nresponse.write(\' -->\\n              <!-- </div> -->\\n            </div>\\n      \\t  </div>\\n    \\t</div>\\n\\t<!--end: Navigation-->\\n\\t\\n      </div>\\n      <!--end: Container-->\\n      \\n      <!--start: Container -->\\n      <div class="container">\\n\\t\\n\\t<!-- start: Flexslider -->\\n\\t<div class="slider">\\n\\t  \\n\\t  <div class="flexslider">\\n\\t    <ul class="slides">\\n\\n\\t      <li>\\n\\t\\t<img src="/distribuidora/static/custom/img/slider/slider1.jpg" alt="" />\\n\\t\\t<div class="slide-caption n hidden-phone">\\n\\t\\t  <h3>This is a caption</h3>\\n\\t\\t  <p>\\n\\t\\t    Lorem ipsum dolor sit amet, consectetuer adipiscing elit, sed diam nonummy nibh euismod tincidunt ut laoreet dolore magna aliquam erat volutpat. Ut wisi enim ad minim veniam, quis nostrud exerci tation ullamcorper suscipit lobortis nisl ut aliquip ex ea commodo consequat.\\n\\t\\t  </p>\\n\\t\\t</div>\\n\\t      </li>\\n\\n\\t      <li>\\n\\t\\t<img src="/distribuidora/static/custom/img/slider/slider2.jpg" alt="" />\\n\\t\\t<div class="slide-caption hidden-phone">\\n\\t\\t  <h3>This is a caption</h3>\\n\\t\\t  <p>\\n\\t\\t    Lorem ipsum dolor sit amet, consectetuer adipiscing elit, sed diam nonummy nibh euismod tincidunt ut laoreet dolore magna aliquam erat volutpat. Ut wisi enim ad minim veniam, quis nostrud exerci tation ullamcorper suscipit lobortis nisl ut aliquip ex ea commodo consequat.\\n\\t\\t  </p>\\n\\t\\t</div>\\n\\t      </li>\\n\\n\\t      <li>\\n\\t\\t<img src="/distribuidora/static/custom/img/slider/slider3.jpg" alt="" />\\n\\t      </li>\\n\\n\\t    </ul>\\n\\t  </div>\\n\\t  \\n\\t</div>\\n\\t<!-- end: Flexslider -->\\n\\n      \\t<!-- start: Hero Unit - Main hero unit for a primary marketing message or call to action -->\\n      \\t<div class="hero-unit">\\n          <p>\\n\\t    This is a template for a simple marketing or informational website. It includes a large callout called the hero unit and three supporting pieces of content. Use it as a starting point to create something more unique.\\n\\t  </p>\\n          <p><a class="btn btn-success btn-large">Learn more &raquo;</a></p>\\n      \\t</div>\\n\\t<!-- end: Hero Unit -->\\n\\n      \\t<!-- start: Row -->\\n      \\t<div class="row">\\n\\t  \\n          <div class="span4">\\n            <div class="icons-box">\\n\\t      <i class="ico-ok circle big"></i>\\n\\t      <div class="title"><h3>Easy to use</h3></div>\\n\\t      <p>\\n\\t\\tLorem ipsum dolor sit amet, consectetuer adipiscing elit, sed diam nonummy nibh euismod tincidunt ut laoreet dolore magna aliquam erat volutpat.\\n\\t      </p>\\n\\t      <div class="clear"></div>\\n\\t    </div>\\n          </div>\\n\\n          <div class="span4">\\n            <div class="icons-box">\\n\\t      <i class="ico-ipad circle big"></i>\\n\\t      <div class="title"><h3>Responsive</h3></div>\\n\\t      <p>\\n\\t\\tLorem ipsum dolor sit amet, consectetuer adipiscing elit, sed diam nonummy nibh euismod tincidunt ut laoreet dolore magna aliquam erat volutpat.\\n\\t      </p>\\n\\t      <div class="clear"></div>\\n\\t    </div>\\n          </div>\\n\\n          <div class="span4">\\n            <div class="icons-box">\\n\\t      <i class="ico-heart circle big"></i>\\n\\t      <div class="title"><h3>User friendly</h3></div>\\n\\t      <p>\\n\\t\\tLorem ipsum dolor sit amet, consectetuer adipiscing elit, sed diam nonummy nibh euismod tincidunt ut laoreet dolore magna aliquam erat volutpat.\\n\\t      </p>\\n\\t      <div class="clear"></div>\\n\\t    </div>\\n          </div>\\n\\n      \\t</div>\\n\\t<!-- end: Row -->\\n      \\t\\n\\t<hr>\\n\\t\\n\\t<!-- start Clients List -->\\t\\n\\t<div class="clients-carousel">\\n\\t  \\n\\t  <ul class="slides clients">\\n\\t    <li><img src="/distribuidora/static/custom/img/logos/1.png" alt=""/></li>\\n\\t    <li><img src="/distribuidora/static/custom/img/logos/2.png" alt=""/></li>\\t\\n\\t    <li><img src="/distribuidora/static/custom/img/logos/3.png" alt=""/></li>\\n\\t    <li><img src="/distribuidora/static/custom/img/logos/4.png" alt=""/></li>\\n\\t    <li><img src="/distribuidora/static/custom/img/logos/5.png" alt=""/></li>\\n\\t    <li><img src="/distribuidora/static/custom/img/logos/6.png" alt=""/></li>\\n\\t    <li><img src="/distribuidora/static/custom/img/logos/7.png" alt=""/></li>\\n\\t    <li><img src="/distribuidora/static/custom/img/logos/8.png" alt=""/></li>\\n\\t    <li><img src="/distribuidora/static/custom/img/logos/9.png" alt=""/></li>\\n\\t    <li><img src="/distribuidora/static/custom/img/logos/10.png" alt=""/></li>\\t\\t\\n\\t  </ul>\\n\\t  \\n\\t</div>\\n\\t<!-- end Clients List -->\\n\\t\\n\\t<hr>\\n\\t\\n\\t<!-- start: Row -->\\n\\t<div class="row">\\n\\t  \\n\\t  <!-- start: Icon Boxes -->\\n\\t  <div class="icons-box-vert-container">\\n\\n\\t    <!-- start: Icon Box Start -->\\n\\t    <div class="span6">\\n\\t      <div class="icons-box-vert">\\n\\t\\t<i class="ico-ok ico-color circle-color big"></i>\\n\\t\\t<div class="icons-box-vert-info">\\n\\t\\t  <h3>Easy to use</h3>\\n\\t\\t  <p>Lorem ipsum dolor sit amet, consectetuer adipiscing elit, sed diam nonummy nibh euismod tincidunt ut laoreet dolore magna aliquam erat volutpat.</p>\\n\\t\\t</div>\\n\\t\\t<div class="clear"></div>\\n\\t      </div>\\n\\t    </div>\\n\\t    <!-- end: Icon Box-->\\n\\n\\t    <!-- start: Icon Box Start -->\\n\\t    <div class="span6">\\n\\t      <div class="icons-box-vert">\\n\\t\\t<i class="ico-cup  ico-white circle-color-full big-color"></i>\\n\\t\\t<div class="icons-box-vert-info">\\n\\t\\t  <h3>Best choice</h3>\\n\\t\\t  <p>Lorem ipsum dolor sit amet, consectetuer adipiscing elit, sed diam nonummy nibh euismod tincidunt ut laoreet dolore magna aliquam erat volutpat.</p>\\n\\t\\t</div>\\n\\t\\t<div class="clear"></div>\\n\\t      </div>\\n\\t    </div>\\n\\t    <!-- end: Icon Box -->\\n\\n\\t    <!-- start: Icon Box Start -->\\n\\t    <div class="span6">\\n\\t      <div class="icons-box-vert">\\n\\t\\t<i class="ico-ipad ico-color circle-color big"></i>\\n\\t\\t<div class="icons-box-vert-info">\\n\\t\\t  <h3>Fully Responsive</h3>\\n\\t\\t  <p>Lorem ipsum dolor sit amet, consectetuer adipiscing elit, sed diam nonummy nibh euismod tincidunt ut laoreet dolore magna aliquam erat volutpat.</p>\\n\\t\\t</div>\\n\\t\\t<div class="clear"></div>\\n\\t      </div>\\n\\t    </div>\\n\\t    <!-- end: Icon Box -->\\n\\n\\t    <!-- start: Icon Box Start -->\\n\\t    <div class="span6">\\n\\t      <div class="icons-box-vert">\\n\\t\\t<i class="ico-thumbs-up  ico-white circle-color-full big-color"></i>\\n\\t\\t<div class="icons-box-vert-info">\\n\\t\\t  <h3>Social Network</h3>\\n\\t\\t  <p>Lorem ipsum dolor sit amet, consectetuer adipiscing elit, sed diam nonummy nibh euismod tincidunt ut laoreet dolore magna aliquam erat volutpat.</p>\\n\\t\\t</div>\\n\\t\\t<div class="clear"></div>\\n\\t      </div>\\n\\t    </div>\\n\\t    <!-- end: Icon Box -->\\n\\n\\t  </div>\\n\\t  <!-- end: Icon Boxes -->\\n\\t  <div class="clear"></div>\\n\\t</div>\\n\\t<!-- end: Row -->\\n\\t\\n\\t<hr>\\n\\t\\n      </div>\\n      <!--end: Container-->\\n      <!-- MODAL FOR CONTACT -->\\n      <!-- Modal -->\\n      <div class="modal fade" id="myModal" tabindex="-1" role="dialog" aria-labelledby="myModalLabel" aria-hidden="true">\\n\\t<div class="modal-dialog">\\n\\t  <div class="modal-content">\\n\\t    <div class="modal-header">\\n\\t      <button type="button" class="close" data-dismiss="modal" aria-hidden="true">&times;</button>\\n\\t      <h4 class="modal-title" id="myModalLabel">Contactanos</h4>\\n\\t    </div>\\n\\t    <div class="modal-body">\\n\\t      <div class="row centered">\\n\\t\\t<div>\\n\\t\\t  <!-- \', escape=False)\nresponse.write(crud.create(db.contacto))\nresponse.write(\' -->\\n\\t\\t</div>\\n\\t\\t<div class="col-md-12"><p>Como alternativa para tus consultas puedes contactarte con: info@xignus.com.ar o al +54 351 6485781</p></div>\\n\\t      </div>\\n\\t    </div>\\n\\t  </div><!-- /.modal-content -->\\n\\t</div><!-- /.modal-dialog -->\\n      </div><!-- /.modal -->\\n\\n      <!--start: Container -->\\n      <div class="container">\\t\\t\\n\\n      \\t<!-- start: Footer Menu -->\\n\\t<div id="footer-menu" class="hidden-tablet hidden-phone">\\n\\n\\t  <!-- start: Container -->\\n\\t  <div class="container">\\n\\t    \\n\\t    <!-- start: Row -->\\n\\t    <div class="row">\\n\\n\\t      <!-- start: Footer Menu Logo -->\\n\\t      <div class="span1">\\n\\t\\t<div id="footer-menu-logo">\\n\\t\\t  <a href="#"><img src="/distribuidora/static/custom/img/logo-footer-menu.png" alt="logo" /></a>\\n\\t\\t</div>\\n\\t      </div>\\n\\t      <!-- end: Footer Menu Logo -->\\n\\n\\t      <!-- start: Footer Menu Links-->\\n\\t      <div class="span10">\\n\\t\\t\\n\\t\\t<div id="footer-menu-links">\\n\\n\\t\\t  <ul id="footer-nav">\\n\\n\\t\\t    <li><a href="index.html">Start</a></li>\\n\\n\\t\\t    <li><a href="about.html">About</a></li>\\n\\n\\t\\t    <li><a href="services.html">Services</a></li>\\n\\n\\t\\t    <li><a href="pricing.html">Pricing</a></li>\\n\\t\\t    \\n\\t\\t    <li><a href="contact.html">Contact</a></li>\\n\\n\\t\\t  </ul>\\n\\n\\t\\t</div>\\n\\t\\t\\n\\t      </div>\\n\\t      <!-- end: Footer Menu Links-->\\n\\n\\t      <!-- start: Footer Menu Back To Top -->\\n\\t      <div class="span1">\\n\\t\\t\\n\\t\\t<div id="footer-menu-back-to-top">\\n\\t\\t  <a href="#"></a>\\n\\t\\t</div>\\n\\t\\t\\n\\t      </div>\\n\\t      <!-- end: Footer Menu Back To Top -->\\n\\t      \\n\\t    </div>\\n\\t    <!-- end: Row -->\\n\\t    \\n\\t  </div>\\n\\t  <!-- end: Container  -->\\t\\n\\n\\t</div>\\t\\n\\t<!-- end: Footer Menu -->\\n\\n\\t<!-- start: Footer -->\\n\\t<div id="footer">\\n\\t  \\n\\t  <!-- start: Container -->\\n\\t  <div class="container">\\n\\t    \\n\\t    <!-- start: Row -->\\n\\t    <div class="row">\\n\\n\\t      <!-- start: About -->\\n\\t      <div class="span3">\\n\\t\\t\\n\\t\\t<h3>About Us</h3>\\n\\t\\t<p>\\n\\t\\t  Lorem ipsum dolor sit amet, consectetuer adipiscing elit, sed diam nonummy nibh euismod tincidunt ut laoreet dolore magna aliquam erat volutpat. Ut wisi enim ad minim veniam, quis nostrud exerci tation ullamcorper suscipit lobortis nisl ut aliquip ex ea commodo consequat.\\n\\t\\t</p>\\n\\t\\t\\n\\t      </div>\\n\\t      <!-- end: About -->\\n\\n\\t      <!-- start: Photo Stream -->\\n\\t      <div class="span3">\\n\\t\\t\\n\\t\\t<h3>Photo Stream</h3>\\n\\t\\t<div class="flickr-widget">\\n\\t\\t  <script type="text/javascript" src="http://www.flickr.com/badge_code_v2.gne?count=9&display=latest&size=s&layout=x&source=user&user=29609591@N08"></script>\\n\\t\\t  <div class="clear"></div>\\n\\t\\t</div>\\n\\t\\t\\n\\t      </div>\\n\\t      <!-- end: Photo Stream -->\\n\\n\\t      \\n\\t      <div class="span6">\\n\\t\\t\\n\\t\\t<!-- start: Follow Us -->\\n\\t\\t<h3>Follow Us!</h3>\\n\\t\\t<ul class="social-grid">\\n\\t\\t  <li>\\n\\t\\t    <div class="social-item">\\t\\t\\t\\t\\n\\t\\t      <div class="social-info-wrap">\\n\\t\\t\\t<div class="social-info">\\n\\t\\t\\t  <div class="social-info-front social-twitter">\\n\\t\\t\\t    <a href="http://twitter.com"></a>\\n\\t\\t\\t  </div>\\n\\t\\t\\t  <div class="social-info-back social-twitter-hover">\\n\\t\\t\\t    <a href="http://twitter.com"></a>\\n\\t\\t\\t  </div>\\t\\n\\t\\t\\t</div>\\n\\t\\t      </div>\\n\\t\\t    </div>\\n\\t\\t  </li>\\n\\t\\t  <li>\\n\\t\\t    <div class="social-item">\\t\\t\\t\\t\\n\\t\\t      <div class="social-info-wrap">\\n\\t\\t\\t<div class="social-info">\\n\\t\\t\\t  <div class="social-info-front social-facebook">\\n\\t\\t\\t    <a href="http://facebook.com"></a>\\n\\t\\t\\t  </div>\\n\\t\\t\\t  <div class="social-info-back social-facebook-hover">\\n\\t\\t\\t    <a href="http://facebook.com"></a>\\n\\t\\t\\t  </div>\\n\\t\\t\\t</div>\\n\\t\\t      </div>\\n\\t\\t    </div>\\n\\t\\t  </li>\\n\\t\\t  <li>\\n\\t\\t    <div class="social-item">\\t\\t\\t\\t\\n\\t\\t      <div class="social-info-wrap">\\n\\t\\t\\t<div class="social-info">\\n\\t\\t\\t  <div class="social-info-front social-dribbble">\\n\\t\\t\\t    <a href="http://dribbble.com"></a>\\n\\t\\t\\t  </div>\\n\\t\\t\\t  <div class="social-info-back social-dribbble-hover">\\n\\t\\t\\t    <a href="http://dribbble.com"></a>\\n\\t\\t\\t  </div>\\t\\n\\t\\t\\t</div>\\n\\t\\t      </div>\\n\\t\\t    </div>\\n\\t\\t  </li>\\n\\t\\t  <li>\\n\\t\\t    <div class="social-item">\\t\\t\\t\\t\\n\\t\\t      <div class="social-info-wrap">\\n\\t\\t\\t<div class="social-info">\\n\\t\\t\\t  <div class="social-info-front social-flickr">\\n\\t\\t\\t    <a href="http://flickr.com"></a>\\n\\t\\t\\t  </div>\\n\\t\\t\\t  <div class="social-info-back social-flickr-hover">\\n\\t\\t\\t    <a href="http://flickr.com"></a>\\n\\t\\t\\t  </div>\\t\\n\\t\\t\\t</div>\\n\\t\\t      </div>\\n\\t\\t    </div>\\n\\t\\t  </li>\\n\\t\\t</ul>\\n\\t\\t<!-- end: Follow Us -->\\n\\t\\t\\n\\t\\t<!-- start: Newsletter -->\\n\\t\\t<form id="newsletter">\\n\\t\\t  <h3>Newsletter</h3>\\n\\t\\t  <p>Please leave us your email</p>\\n\\t\\t  <label for="newsletter_input">@:</label>\\n\\t\\t  <input type="text" id="newsletter_input"/>\\n\\t\\t  <input type="submit" id="newsletter_submit" value="submit">\\n\\t\\t</form>\\n\\t\\t<!-- end: Newsletter -->\\n\\t\\t\\n\\t      </div>\\n\\t      \\n\\t    </div>\\n\\t    <!-- end: Row -->\\t\\n\\t    \\n\\t  </div>\\n\\t  <!-- end: Container  -->\\n\\n\\t</div>\\n\\t<!-- end: Footer -->\\n\\t\\n      </div>\\n      <!-- end: Container  -->\\n\\n    </div>\\n    <!-- end: Wrapper  -->\\n\\n\\n    <!-- start: Copyright -->\\n    <div id="copyright">\\n      \\n      <!-- start: Container -->\\n      <div class="container">\\n\\t\\n\\t<p>\\n\\t  &copy; 2013, creativeLabs. <a href="http://bootstrapmaster.com" alt="Bootstrap Themes">Bootstrap Themes</a> Designed by BootstrapMaster in Poland <img src="/distribuidora/static/custom/img/poland.png" alt="Poland" style="margin-top:-4px">\\n\\t</p>\\n\\t\\n      </div>\\n      <!-- end: Container  -->\\n      \\n    </div>\\t\\n    <!-- end: Copyright -->\\n\\n    <!-- start: Java Script -->\\n    <!-- Placed at the end of the document so the pages load faster -->\\n    <script src="\', escape=False)\nresponse.write(URL(\'static\',\'custom/js/jquery-1.8.2.js\'))\nresponse.write(\'"></script>\\n    <script src="\', escape=False)\nresponse.write(URL(\'static\',\'custom/js/bootstrap.js\'))\nresponse.write(\'"></script>\\n    <script src="\', escape=False)\nresponse.write(URL(\'static\',\'custom/js/flexslider.js\'))\nresponse.write(\'"></script>\\n    <script src="\', escape=False)\nresponse.write(URL(\'static\',\'custom/js/carousel.js\'))\nresponse.write(\'"></script>\\n    <script def src="\', escape=False)\nresponse.write(URL(\'static\',\'custom/js/custom.js\'))\nresponse.write(\'"></script>\\n    <!-- end: Java Script -->\\n\\n  </body>\\n</html>\\n\', escape=False)'
p7
sS'snapshot'
p8
(dp9
S'exception'
p10
(dp11
S'__hash__'
p12
S"<method-wrapper '__hash__' of exceptions.AttributeError object>"
p13
sS'__setattr__'
p14
S"<method-wrapper '__setattr__' of exceptions.AttributeError object>"
p15
sS'__reduce_ex__'
p16
S'<built-in method __reduce_ex__ of exceptions.AttributeError object>'
p17
sS'__getslice__'
p18
S"<method-wrapper '__getslice__' of exceptions.AttributeError object>"
p19
sS'__getitem__'
p20
S"<method-wrapper '__getitem__' of exceptions.AttributeError object>"
p21
sS'__setstate__'
p22
S'<built-in method __setstate__ of exceptions.AttributeError object>'
p23
sS'args'
p24
S'("\'DAL\' object has no attribute \'contacto\'",)'
p25
sS'__reduce__'
p26
S'<built-in method __reduce__ of exceptions.AttributeError object>'
p27
sS'__str__'
p28
S"<method-wrapper '__str__' of exceptions.AttributeError object>"
p29
sS'__format__'
p30
S'<built-in method __format__ of exceptions.AttributeError object>'
p31
sS'__getattribute__'
p32
S"<method-wrapper '__getattribute__' of exceptions.AttributeError object>"
p33
sS'__class__'
p34
S"<type 'exceptions.AttributeError'>"
p35
sS'__unicode__'
p36
S'<built-in method __unicode__ of exceptions.AttributeError object>'
p37
sS'__delattr__'
p38
S"<method-wrapper '__delattr__' of exceptions.AttributeError object>"
p39
sS'__subclasshook__'
p40
S'<built-in method __subclasshook__ of type object>'
p41
sS'__repr__'
p42
S"<method-wrapper '__repr__' of exceptions.AttributeError object>"
p43
sS'__dict__'
p44
S'{}'
p45
sS'__sizeof__'
p46
S'<built-in method __sizeof__ of exceptions.AttributeError object>'
p47
sS'__doc__'
p48
S"'Attribute not found.'"
p49
sS'__init__'
p50
S"<method-wrapper '__init__' of exceptions.AttributeError object>"
p51
sS'__new__'
p52
S'<built-in method __new__ of type object>'
p53
ssS'evalue'
p54
S"'DAL' object has no attribute 'contacto'"
p55
sS'request'
p56
cgluon.html
XML_unpickle
p57
(S's\x03\\\x00\x00<div><table><tr><td style="font-weight:bold;vertical-align:top;">ajax</td><td style="vertical-align:top;">:</td><td><div>False</div></td></tr><tr><td style="font-weight:bold;vertical-align:top;">application</td><td style="vertical-align:top;">:</td><td><div>distribuidora</div></td></tr><tr><td style="font-weight:bold;vertical-align:top;">args</td><td style="vertical-align:top;">:</td><td><div><table></table></div></td></tr><tr><td style="font-weight:bold;vertical-align:top;">cid</td><td style="vertical-align:top;">:</td><td><div>None</div></td></tr><tr><td style="font-weight:bold;vertical-align:top;">client</td><td style="vertical-align:top;">:</td><td><div>127.0.0.1</div></td></tr><tr><td style="font-weight:bold;vertical-align:top;">controller</td><td style="vertical-align:top;">:</td><td><div>default</div></td></tr><tr><td style="font-weight:bold;vertical-align:top;">cookies</td><td style="vertical-align:top;">:</td><td><div><table><tr><td style="font-weight:bold;vertical-align:top;">session_id_admin</td><td style="vertical-align:top;">:</td><td><div>127.0.0.1-df3c2296-8afb-40ab-b765-70ea5ed6d0da<table><tr><td style="font-weight:bold;vertical-align:top;">comment</td><td style="vertical-align:top;">:</td><td><div></div></td></tr><tr><td style="font-weight:bold;vertical-align:top;">domain</td><td style="vertical-align:top;">:</td><td><div></div></td></tr><tr><td style="font-weight:bold;vertical-align:top;">expires</td><td style="vertical-align:top;">:</td><td><div></div></td></tr><tr><td style="font-weight:bold;vertical-align:top;">httponly</td><td style="vertical-align:top;">:</td><td><div></div></td></tr><tr><td style="font-weight:bold;vertical-align:top;">max-age</td><td style="vertical-align:top;">:</td><td><div></div></td></tr><tr><td style="font-weight:bold;vertical-align:top;">path</td><td style="vertical-align:top;">:</td><td><div></div></td></tr><tr><td style="font-weight:bold;vertical-align:top;">secure</td><td style="vertical-align:top;">:</td><td><div></div></td></tr><tr><td style="font-weight:bold;vertical-align:top;">version</td><td style="vertical-align:top;">:</td><td><div></div></td></tr></table></div></td></tr><tr><td style="font-weight:bold;vertical-align:top;">session_id_distribuidora</td><td style="vertical-align:top;">:</td><td><div>127.0.0.1-ea47b01d-7d03-440f-9431-ba321337385b<table><tr><td style="font-weight:bold;vertical-align:top;">comment</td><td style="vertical-align:top;">:</td><td><div></div></td></tr><tr><td style="font-weight:bold;vertical-align:top;">domain</td><td style="vertical-align:top;">:</td><td><div></div></td></tr><tr><td style="font-weight:bold;vertical-align:top;">expires</td><td style="vertical-align:top;">:</td><td><div></div></td></tr><tr><td style="font-weight:bold;vertical-align:top;">httponly</td><td style="vertical-align:top;">:</td><td><div></div></td></tr><tr><td style="font-weight:bold;vertical-align:top;">max-age</td><td style="vertical-align:top;">:</td><td><div></div></td></tr><tr><td style="font-weight:bold;vertical-align:top;">path</td><td style="vertical-align:top;">:</td><td><div></div></td></tr><tr><td style="font-weight:bold;vertical-align:top;">secure</td><td style="vertical-align:top;">:</td><td><div></div></td></tr><tr><td style="font-weight:bold;vertical-align:top;">version</td><td style="vertical-align:top;">:</td><td><div></div></td></tr></table></div></td></tr><tr><td style="font-weight:bold;vertical-align:top;">session_id_xignus</td><td style="vertical-align:top;">:</td><td><div>127.0.0.1-37619f35-9f5e-47ca-bb71-a598cee78d67<table><tr><td style="font-weight:bold;vertical-align:top;">comment</td><td style="vertical-align:top;">:</td><td><div></div></td></tr><tr><td style="font-weight:bold;vertical-align:top;">domain</td><td style="vertical-align:top;">:</td><td><div></div></td></tr><tr><td style="font-weight:bold;vertical-align:top;">expires</td><td style="vertical-align:top;">:</td><td><div></div></td></tr><tr><td style="font-weight:bold;vertical-align:top;">httponly</td><td style="vertical-align:top;">:</td><td><div></div></td></tr><tr><td style="font-weight:bold;vertical-align:top;">max-age</td><td style="vertical-align:top;">:</td><td><div></div></td></tr><tr><td style="font-weight:bold;vertical-align:top;">path</td><td style="vertical-align:top;">:</td><td><div></div></td></tr><tr><td style="font-weight:bold;vertical-align:top;">secure</td><td style="vertical-align:top;">:</td><td><div></div></td></tr><tr><td style="font-weight:bold;vertical-align:top;">version</td><td style="vertical-align:top;">:</td><td><div></div></td></tr></table></div></td></tr></table></div></td></tr><tr><td style="font-weight:bold;vertical-align:top;">env</td><td style="vertical-align:top;">:</td><td><div><table><tr><td style="font-weight:bold;vertical-align:top;">HTTP_ACCEPT</td><td style="vertical-align:top;">:</td><td><div>text/html,application/xhtml+xml,application/xml;q=0.9,*/*;q=0.8</div></td></tr><tr><td style="font-weight:bold;vertical-align:top;">HTTP_ACCEPT_ENCODING</td><td style="vertical-align:top;">:</td><td><div>gzip, deflate</div></td></tr><tr><td style="font-weight:bold;vertical-align:top;">HTTP_ACCEPT_LANGUAGE</td><td style="vertical-align:top;">:</td><td><div>en-US,en;q=0.5</div></td></tr><tr><td style="font-weight:bold;vertical-align:top;">HTTP_CACHE_CONTROL</td><td style="vertical-align:top;">:</td><td><div>max-age=0</div></td></tr><tr><td style="font-weight:bold;vertical-align:top;">HTTP_CONNECTION</td><td style="vertical-align:top;">:</td><td><div>keep-alive</div></td></tr><tr><td style="font-weight:bold;vertical-align:top;">HTTP_COOKIE</td><td style="vertical-align:top;">:</td><td><div>session_id_distribuidora=127.0.0.1-ea47b01d-7d03-440f-9431-ba321337385b; session_id_admin=127.0.0.1-df3c2296-8afb-40ab-b765-70ea5ed6d0da; session_id_xignus=127.0.0.1-37619f35-9f5e-47ca-bb71-a598cee78d67</div></td></tr><tr><td style="font-weight:bold;vertical-align:top;">HTTP_HOST</td><td style="vertical-align:top;">:</td><td><div>127.0.0.1:8000</div></td></tr><tr><td style="font-weight:bold;vertical-align:top;">HTTP_REFERER</td><td style="vertical-align:top;">:</td><td><div>http://127.0.0.1:8000/distribuidora/default/index</div></td></tr><tr><td style="font-weight:bold;vertical-align:top;">HTTP_USER_AGENT</td><td style="vertical-align:top;">:</td><td><div>Mozilla/5.0 (X11; Linux x86_64; rv:31.0) Gecko/20100101 Firefox/31.0 Iceweasel/31.0</div></td></tr><tr><td style="font-weight:bold;vertical-align:top;">PATH_INFO</td><td style="vertical-align:top;">:</td><td><div>/distribuidora/default/index</div></td></tr><tr><td style="font-weight:bold;vertical-align:top;">QUERY_STRING</td><td style="vertical-align:top;">:</td><td><div></div></td></tr><tr><td style="font-weight:bold;vertical-align:top;">REMOTE_ADDR</td><td style="vertical-align:top;">:</td><td><div>127.0.0.1</div></td></tr><tr><td style="font-weight:bold;vertical-align:top;">REMOTE_PORT</td><td style="vertical-align:top;">:</td><td><div>43462</div></td></tr><tr><td style="font-weight:bold;vertical-align:top;">REQUEST_METHOD</td><td style="vertical-align:top;">:</td><td><div>GET</div></td></tr><tr><td style="font-weight:bold;vertical-align:top;">SCRIPT_NAME</td><td style="vertical-align:top;">:</td><td><div></div></td></tr><tr><td style="font-weight:bold;vertical-align:top;">SERVER_NAME</td><td style="vertical-align:top;">:</td><td><div>malena</div></td></tr><tr><td style="font-weight:bold;vertical-align:top;">SERVER_PORT</td><td style="vertical-align:top;">:</td><td><div>8000</div></td></tr><tr><td style="font-weight:bold;vertical-align:top;">SERVER_PROTOCOL</td><td style="vertical-align:top;">:</td><td><div>HTTP/1.1</div></td></tr><tr><td style="font-weight:bold;vertical-align:top;">SERVER_SOFTWARE</td><td style="vertical-align:top;">:</td><td><div>Rocket 1.2.6</div></td></tr><tr><td style="font-weight:bold;vertical-align:top;">app_folders</td><td style="vertical-align:top;">:</td><td><div>set([&#x27;/home/marco/trabajo/experimental/web2py/applications/admin/&#x27;, &#x27;/home/marco/trabajo/experimental/web2py/applications/xignus/&#x27;, &#x27;/home/marco/trabajo/experimental/web2py/applications/distribuidora/&#x27;])</div></td></tr><tr><td style="font-weight:bold;vertical-align:top;">applications_parent</td><td style="vertical-align:top;">:</td><td><div>/home/marco/trabajo/experimental/web2py</div></td></tr><tr><td style="font-weight:bold;vertical-align:top;">cmd_args</td><td style="vertical-align:top;">:</td><td><div><table></table></div></td></tr><tr><td style="font-weight:bold;vertical-align:top;">cmd_options</td><td style="vertical-align:top;">:</td><td><div>&lt;Values at 0x7fb8056c1b48: {&#x27;verbose&#x27;: False, &#x27;ip&#x27;: &#x27;127.0.0.1&#x27;, &#x27;debuglevel&#x27;: 30, &#x27;with_scheduler&#x27;: False, &#x27;ips&#x27;: [&#x27;127.0.1.1&#x27;], &#x27;shutdown_timeout&#x27;: 5, &#x27;taskbar&#x27;: False, &#x27;with_coverage&#x27;: False, &#x27;scheduler_groups&#x27;: None, &#x27;port&#x27;: 8000, &#x27;maxthreads&#x27;: None, &#x27;softcron&#x27;: False, &#x27;server_name&#x27;: &#x27;malena&#x27;, &#x27;bpython&#x27;: False, &#x27;nogui&#x27;: False, &#x27;pid_filename&#x27;: &#x27;httpserver.pid&#x27;, &#x27;extcron&#x27;: False, &#x27;runcron&#x27;: False, &#x27;run_system_tests&#x27;: False, &#x27;test&#x27;: None, &#x27;folder&#x27;: &#x27;/home/marco/trabajo/experimental/web2py&#x27;, &#x27;config&#x27;: &#x27;&#x27;, &#x27;minthreads&#x27;: None, &#x27;shell&#x27;: None, &#x27;run&#x27;: &#x27;&#x27;, &#x27;log_filename&#x27;: &#x27;httpserver.log&#x27;, &#x27;profiler_dir&#x27;: None, &#x27;args&#x27;: [&#x27;&#x27;], &#x27;socket_timeout&#x27;: 5, &#x27;ssl_ca_certificate&#x27;: None, &#x27;scheduler&#x27;: None, &#x27;interfaces&#x27;: None, &#x27;ssl_private_key&#x27;: &#x27;&#x27;, &#x27;gae&#x27;: None, &#x27;password&#x27;: &#x27;asd&#x27;, &#x27;request_queue_size&#x27;: 5, &#x27;ssl_certificate&#x27;: &#x27;&#x27;, &#x27;cronjob&#x27;: False, &#x27;numthreads&#x27;: None, &#x27;quiet&#x27;: False, &#x27;import_models&#x27;: False, &#x27;timeout&#x27;: 10, &#x27;plain&#x27;: False, &#x27;nobanner&#x27;: False}&gt;</div></td></tr><tr><td style="font-weight:bold;vertical-align:top;">db_sessions</td><td style="vertical-align:top;">:</td><td><div>set([])</div></td></tr><tr><td style="font-weight:bold;vertical-align:top;">debugging</td><td style="vertical-align:top;">:</td><td><div>False</div></td></tr><tr><td style="font-weight:bold;vertical-align:top;">gluon_parent</td><td style="vertical-align:top;">:</td><td><div>/home/marco/trabajo/experimental/web2py</div></td></tr><tr><td style="font-weight:bold;vertical-align:top;">http_accept</td><td style="vertical-align:top;">:</td><td><div>text/html,application/xhtml+xml,application/xml;q=0.9,*/*;q=0.8</div></td></tr><tr><td style="font-weight:bold;vertical-align:top;">http_accept_encoding</td><td style="vertical-align:top;">:</td><td><div>gzip, deflate</div></td></tr><tr><td style="font-weight:bold;vertical-align:top;">http_accept_language</td><td style="vertical-align:top;">:</td><td><div>en-US,en;q=0.5</div></td></tr><tr><td style="font-weight:bold;vertical-align:top;">http_cache_control</td><td style="vertical-align:top;">:</td><td><div>max-age=0</div></td></tr><tr><td style="font-weight:bold;vertical-align:top;">http_connection</td><td style="vertical-align:top;">:</td><td><div>keep-alive</div></td></tr><tr><td style="font-weight:bold;vertical-align:top;">http_cookie</td><td style="vertical-align:top;">:</td><td><div>session_id_distribuidora=127.0.0.1-ea47b01d-7d03-440f-9431-ba321337385b; session_id_admin=127.0.0.1-df3c2296-8afb-40ab-b765-70ea5ed6d0da; session_id_xignus=127.0.0.1-37619f35-9f5e-47ca-bb71-a598cee78d67</div></td></tr><tr><td style="font-weight:bold;vertical-align:top;">http_host</td><td style="vertical-align:top;">:</td><td><div>127.0.0.1:8000</div></td></tr><tr><td style="font-weight:bold;vertical-align:top;">http_referer</td><td style="vertical-align:top;">:</td><td><div>http://127.0.0.1:8000/distribuidora/default/index</div></td></tr><tr><td style="font-weight:bold;vertical-align:top;">http_user_agent</td><td style="vertical-align:top;">:</td><td><div>Mozilla/5.0 (X11; Linux x86_64; rv:31.0) Gecko/20100101 Firefox/31.0 Iceweasel/31.0</div></td></tr><tr><td style="font-weight:bold;vertical-align:top;">is_jython</td><td style="vertical-align:top;">:</td><td><div>False</div></td></tr><tr><td style="font-weight:bold;vertical-align:top;">is_pypy</td><td style="vertical-align:top;">:</td><td><div>False</div></td></tr><tr><td style="font-weight:bold;vertical-align:top;">is_source</td><td style="vertical-align:top;">:</td><td><div>True</div></td></tr><tr><td style="font-weight:bold;vertical-align:top;">local_hosts</td><td style="vertical-align:top;">:</td><td><div><table><tr><td><div>malena</div></td></tr><tr><td><div>::1</div></td></tr><tr><td><div>127.0.1.1</div></td></tr><tr><td><div>::ffff:127.0.0.1</div></td></tr><tr><td><div>127.0.0.1</div></td></tr></table></div></td></tr><tr><td style="font-weight:bold;vertical-align:top;">path_info</td><td style="vertical-align:top;">:</td><td><div>/distribuidora/default/index</div></td></tr><tr><td style="font-weight:bold;vertical-align:top;">query_string</td><td style="vertical-align:top;">:</td><td><div></div></td></tr><tr><td style="font-weight:bold;vertical-align:top;">remote_addr</td><td style="vertical-align:top;">:</td><td><div>127.0.0.1</div></td></tr><tr><td style="font-weight:bold;vertical-align:top;">remote_port</td><td style="vertical-align:top;">:</td><td><div>43462</div></td></tr><tr><td style="font-weight:bold;vertical-align:top;">request_method</td><td style="vertical-align:top;">:</td><td><div>GET</div></td></tr><tr><td style="font-weight:bold;vertical-align:top;">request_uri</td><td style="vertical-align:top;">:</td><td><div>/distribuidora/default/index</div></td></tr><tr><td style="font-weight:bold;vertical-align:top;">script_name</td><td style="vertical-align:top;">:</td><td><div></div></td></tr><tr><td style="font-weight:bold;vertical-align:top;">server_name</td><td style="vertical-align:top;">:</td><td><div>malena</div></td></tr><tr><td style="font-weight:bold;vertical-align:top;">server_port</td><td style="vertical-align:top;">:</td><td><div>8000</div></td></tr><tr><td style="font-weight:bold;vertical-align:top;">server_protocol</td><td style="vertical-align:top;">:</td><td><div>HTTP/1.1</div></td></tr><tr><td style="font-weight:bold;vertical-align:top;">server_software</td><td style="vertical-align:top;">:</td><td><div>Rocket 1.2.6</div></td></tr><tr><td style="font-weight:bold;vertical-align:top;">web2py_path</td><td style="vertical-align:top;">:</td><td><div>/home/marco/trabajo/experimental/web2py</div></td></tr><tr><td style="font-weight:bold;vertical-align:top;">web2py_version</td><td style="vertical-align:top;">:</td><td><div>2.9.5-trunk+timestamp.2014.06.14.10.06.38</div></td></tr><tr><td style="font-weight:bold;vertical-align:top;">wsgi.errors</td><td style="vertical-align:top;">:</td><td><div>&lt;open file &#x27;&lt;stderr&gt;&#x27;, mode &#x27;w&#x27; at 0x7fb80fd701e0&gt;</div></td></tr><tr><td style="font-weight:bold;vertical-align:top;">wsgi.file_wrapper</td><td style="vertical-align:top;">:</td><td><div>&lt;class wsgiref.util.FileWrapper at 0x7fb805740530&gt;</div></td></tr><tr><td style="font-weight:bold;vertical-align:top;">wsgi.input</td><td style="vertical-align:top;">:</td><td><div>&lt;socket._fileobject object at 0x7fb7d96ed4d0&gt;</div></td></tr><tr><td style="font-weight:bold;vertical-align:top;">wsgi.multiprocess</td><td style="vertical-align:top;">:</td><td><div>False</div></td></tr><tr><td style="font-weight:bold;vertical-align:top;">wsgi.multithread</td><td style="vertical-align:top;">:</td><td><div>True</div></td></tr><tr><td style="font-weight:bold;vertical-align:top;">wsgi.run_once</td><td style="vertical-align:top;">:</td><td><div>False</div></td></tr><tr><td style="font-weight:bold;vertical-align:top;">wsgi.url_scheme</td><td style="vertical-align:top;">:</td><td><div>http</div></td></tr><tr><td style="font-weight:bold;vertical-align:top;">wsgi.version</td><td style="vertical-align:top;">:</td><td><div><table><tr><td><div>1</div></td></tr><tr><td><div>0</div></td></tr></table></div></td></tr><tr><td style="font-weight:bold;vertical-align:top;">wsgi_errors</td><td style="vertical-align:top;">:</td><td><div>&lt;open file &#x27;&lt;stderr&gt;&#x27;, mode &#x27;w&#x27; at 0x7fb80fd701e0&gt;</div></td></tr><tr><td style="font-weight:bold;vertical-align:top;">wsgi_file_wrapper</td><td style="vertical-align:top;">:</td><td><div>&lt;class wsgiref.util.FileWrapper at 0x7fb805740530&gt;</div></td></tr><tr><td style="font-weight:bold;vertical-align:top;">wsgi_input</td><td style="vertical-align:top;">:</td><td><div>&lt;socket._fileobject object at 0x7fb7d96ed4d0&gt;</div></td></tr><tr><td style="font-weight:bold;vertical-align:top;">wsgi_multiprocess</td><td style="vertical-align:top;">:</td><td><div>False</div></td></tr><tr><td style="font-weight:bold;vertical-align:top;">wsgi_multithread</td><td style="vertical-align:top;">:</td><td><div>True</div></td></tr><tr><td style="font-weight:bold;vertical-align:top;">wsgi_run_once</td><td style="vertical-align:top;">:</td><td><div>False</div></td></tr><tr><td style="font-weight:bold;vertical-align:top;">wsgi_url_scheme</td><td style="vertical-align:top;">:</td><td><div>http</div></td></tr><tr><td style="font-weight:bold;vertical-align:top;">wsgi_version</td><td style="vertical-align:top;">:</td><td><div><table><tr><td><div>1</div></td></tr><tr><td><div>0</div></td></tr></table></div></td></tr></table></div></td></tr><tr><td style="font-weight:bold;vertical-align:top;">extension</td><td style="vertical-align:top;">:</td><td><div>html</div></td></tr><tr><td style="font-weight:bold;vertical-align:top;">folder</td><td style="vertical-align:top;">:</td><td><div>/home/marco/trabajo/experimental/web2py/applications/distribuidora/</div></td></tr><tr><td style="font-weight:bold;vertical-align:top;">function</td><td style="vertical-align:top;">:</td><td><div>index</div></td></tr><tr><td style="font-weight:bold;vertical-align:top;">global_settings</td><td style="vertical-align:top;">:</td><td><div><table><tr><td style="font-weight:bold;vertical-align:top;">app_folders</td><td style="vertical-align:top;">:</td><td><div>set([&#x27;/home/marco/trabajo/experimental/web2py/applications/admin/&#x27;, &#x27;/home/marco/trabajo/experimental/web2py/applications/xignus/&#x27;, &#x27;/home/marco/trabajo/experimental/web2py/applications/distribuidora/&#x27;])</div></td></tr><tr><td style="font-weight:bold;vertical-align:top;">applications_parent</td><td style="vertical-align:top;">:</td><td><div>/home/marco/trabajo/experimental/web2py</div></td></tr><tr><td style="font-weight:bold;vertical-align:top;">cmd_args</td><td style="vertical-align:top;">:</td><td><div><table></table></div></td></tr><tr><td style="font-weight:bold;vertical-align:top;">cmd_options</td><td style="vertical-align:top;">:</td><td><div>&lt;Values at 0x7fb8056c1b48: {&#x27;verbose&#x27;: False, &#x27;ip&#x27;: &#x27;127.0.0.1&#x27;, &#x27;debuglevel&#x27;: 30, &#x27;with_scheduler&#x27;: False, &#x27;ips&#x27;: [&#x27;127.0.1.1&#x27;], &#x27;shutdown_timeout&#x27;: 5, &#x27;taskbar&#x27;: False, &#x27;with_coverage&#x27;: False, &#x27;scheduler_groups&#x27;: None, &#x27;port&#x27;: 8000, &#x27;maxthreads&#x27;: None, &#x27;softcron&#x27;: False, &#x27;server_name&#x27;: &#x27;malena&#x27;, &#x27;bpython&#x27;: False, &#x27;nogui&#x27;: False, &#x27;pid_filename&#x27;: &#x27;httpserver.pid&#x27;, &#x27;extcron&#x27;: False, &#x27;runcron&#x27;: False, &#x27;run_system_tests&#x27;: False, &#x27;test&#x27;: None, &#x27;folder&#x27;: &#x27;/home/marco/trabajo/experimental/web2py&#x27;, &#x27;config&#x27;: &#x27;&#x27;, &#x27;minthreads&#x27;: None, &#x27;shell&#x27;: None, &#x27;run&#x27;: &#x27;&#x27;, &#x27;log_filename&#x27;: &#x27;httpserver.log&#x27;, &#x27;profiler_dir&#x27;: None, &#x27;args&#x27;: [&#x27;&#x27;], &#x27;socket_timeout&#x27;: 5, &#x27;ssl_ca_certificate&#x27;: None, &#x27;scheduler&#x27;: None, &#x27;interfaces&#x27;: None, &#x27;ssl_private_key&#x27;: &#x27;&#x27;, &#x27;gae&#x27;: None, &#x27;password&#x27;: &#x27;asd&#x27;, &#x27;request_queue_size&#x27;: 5, &#x27;ssl_certificate&#x27;: &#x27;&#x27;, &#x27;cronjob&#x27;: False, &#x27;numthreads&#x27;: None, &#x27;quiet&#x27;: False, &#x27;import_models&#x27;: False, &#x27;timeout&#x27;: 10, &#x27;plain&#x27;: False, &#x27;nobanner&#x27;: False}&gt;</div></td></tr><tr><td style="font-weight:bold;vertical-align:top;">db_sessions</td><td style="vertical-align:top;">:</td><td><div>set([])</div></td></tr><tr><td style="font-weight:bold;vertical-align:top;">debugging</td><td style="vertical-align:top;">:</td><td><div>False</div></td></tr><tr><td style="font-weight:bold;vertical-align:top;">gluon_parent</td><td style="vertical-align:top;">:</td><td><div>/home/marco/trabajo/experimental/web2py</div></td></tr><tr><td style="font-weight:bold;vertical-align:top;">is_jython</td><td style="vertical-align:top;">:</td><td><div>False</div></td></tr><tr><td style="font-weight:bold;vertical-align:top;">is_pypy</td><td style="vertical-align:top;">:</td><td><div>False</div></td></tr><tr><td style="font-weight:bold;vertical-align:top;">is_source</td><td style="vertical-align:top;">:</td><td><div>True</div></td></tr><tr><td style="font-weight:bold;vertical-align:top;">local_hosts</td><td style="vertical-align:top;">:</td><td><div><table><tr><td><div>malena</div></td></tr><tr><td><div>::1</div></td></tr><tr><td><div>127.0.1.1</div></td></tr><tr><td><div>::ffff:127.0.0.1</div></td></tr><tr><td><div>127.0.0.1</div></td></tr></table></div></td></tr><tr><td style="font-weight:bold;vertical-align:top;">web2py_version</td><td style="vertical-align:top;">:</td><td><div>2.9.5-trunk+timestamp.2014.06.14.10.06.38</div></td></tr></table></div></td></tr><tr><td style="font-weight:bold;vertical-align:top;">is_https</td><td style="vertical-align:top;">:</td><td><div>False</div></td></tr><tr><td style="font-weight:bold;vertical-align:top;">is_local</td><td style="vertical-align:top;">:</td><td><div>True</div></td></tr><tr><td style="font-weight:bold;vertical-align:top;">is_restful</td><td style="vertical-align:top;">:</td><td><div>False</div></td></tr><tr><td style="font-weight:bold;vertical-align:top;">now</td><td style="vertical-align:top;">:</td><td><div>datetime.datetime(2014, 7, 22, 15, 15, 55, 745705)</div></td></tr><tr><td style="font-weight:bold;vertical-align:top;">raw_args</td><td style="vertical-align:top;">:</td><td><div></div></td></tr><tr><td style="font-weight:bold;vertical-align:top;">raw_extension</td><td style="vertical-align:top;">:</td><td><div>None</div></td></tr><tr><td style="font-weight:bold;vertical-align:top;">url</td><td style="vertical-align:top;">:</td><td><div>/distribuidora/default/index</div></td></tr><tr><td style="font-weight:bold;vertical-align:top;">utcnow</td><td style="vertical-align:top;">:</td><td><div>datetime.datetime(2014, 7, 22, 18, 15, 55, 745738)</div></td></tr><tr><td style="font-weight:bold;vertical-align:top;">uuid</td><td style="vertical-align:top;">:</td><td><div>distribuidora/127.0.0.1.2014-07-22.15-15-55.6a8f51f8-0454-48c1-a201-af5f69fc6aa6</div></td></tr><tr><td style="font-weight:bold;vertical-align:top;">wsgi</td><td style="vertical-align:top;">:</td><td><div>&lt;gluon.main.LazyWSGI object at 0x7fb7d96cc410&gt;</div></td></tr></table></div>'
tRp58
sS'frames'
p59
(lp60
(dp61
S'file'
p62
S'/home/marco/trabajo/experimental/web2py/gluon/restricted.py'
p63
sS'dump'
p64
(dp65
S'environment'
p66
S"{'A': <class 'gluon.html.A'>, 'ANY_OF': <class 'gluon.validators.ANY_OF'>, 'Auth': <class 'gluon.tools.Auth'>, 'B': <class 'gluon.html.B'>, 'BEAUTIFY': <class 'gluon.html.BEAUTIFY'>, 'BODY': <class 'gluon.html.BODY'>, 'BR': <class 'gluon.html.BR'>, 'BUTTON': <class 'gluon.html.BUTTON'>, 'CAT': <class 'gluon.html.CAT'>, 'CENTER': <class 'gluon.html.CENTER'>, ...}"
p67
sS'ccode'
p68
S'<code object <module> at 0x7fb7d9223030, file "/.../distribuidora/views/default/index.html", line 1>'
p69
ssS'lnum'
p70
I221
sS'lines'
p71
(dp72
I224
S'    except RestrictedError:'
p73
sI225
S'        # do not encapsulate (obfuscate) the original RestrictedError'
p74
sI216
S'    try:'
p75
sI217
S'        if isinstance(code, types.CodeType):'
p76
sI218
S'            ccode = code'
p77
sI219
S'        else:'
p78
sI220
S'            ccode = compile2(code, layer)'
p79
sI221
S'        exec ccode in environment'
p80
sI222
S'    except HTTP:'
p81
sI223
S'        raise'
p82
ssS'call'
p83
S'(code=\'response.write(\\\'<!DOCTYPE html>\\\\n<html lang="en"...cript -->\\\\n\\\\n  </body>\\\\n</html>\\\\n\\\', escape=False)\', environment={\'A\': <class \'gluon.html.A\'>, \'ANY_OF\': <class \'gluon.validators.ANY_OF\'>, \'Auth\': <class \'gluon.tools.Auth\'>, \'B\': <class \'gluon.html.B\'>, \'BEAUTIFY\': <class \'gluon.html.BEAUTIFY\'>, \'BODY\': <class \'gluon.html.BODY\'>, \'BR\': <class \'gluon.html.BR\'>, \'BUTTON\': <class \'gluon.html.BUTTON\'>, \'CAT\': <class \'gluon.html.CAT\'>, \'CENTER\': <class \'gluon.html.CENTER\'>, ...}, layer=\'/home/marco/trabajo/experimental/web2py/applications/distribuidora/views/default/index.html\')'
p84
sS'func'
p85
S'restricted'
p86
sa(dp87
g62
S'/home/marco/trabajo/experimental/web2py/applications/distribuidora/views/default/index.html'
p88
sg64
(dp89
S'a'
S'undefined'
p90
sS'turpis'
p91
g90
sS'li'
p92
g90
sS'href'
p93
g90
sS'feugiat'
p94
g90
sS'Amet'
p95
g90
ssg70
I22
sg71
(dp96
I32
S"response.write(URL('static','custom/js/custom.js'))"
p97
sI13
S'response.write(\'">\\n\\t\\t\', escape=False)'
p98
sI14
S'if response.menu:'
p99
sI15
S"    response.write('\\n\\t\\t', escape=False)"
p100
sI16
S"    response.write(MENU(response.menu, _class='mobile-menu navbar' if is_mobile else 'nav',mobile=is_mobile,li_class='dropdown',ul_class='dropdown-menu'))"
p101
sI17
S"    response.write('\\n\\t\\t', escape=False)"
p102
sI18
S'    pass'
p103
sI19
S'response.write(\'\\n              </div><!--/.nav-collapse -->\\n              <!-- <div class="nav-collapse collapse"> -->\\n              <!-- \\t<\\\\!-- <ul class="nav"> -\\\\-> -->\\n              <!-- \\t<\\\\!--   <li class="active"><a href="index.html">Home</a></li> -\\\\-> -->\\n              <!-- \\t<\\\\!--   <li><a href="about.html">About</a></li> -\\\\-> -->\\n\\t      <!-- \\t<\\\\!--   <li><a href="services.html">Services</a></li> -\\\\-> -->\\n\\t      <!-- \\t<\\\\!--   <li><a href="pricing.html">Pricing</a></li> -\\\\-> -->\\n              <!-- \\t<\\\\!--   <li><a href="contact.html">Contact</a></li> -\\\\-> -->\\n              <!-- \\t<\\\\!--   <li class="dropdown"> -\\\\-> -->\\n              <!--   <\\\\!--     <a href="#" class="dropdown-toggle" data-toggle="dropdown">Dropdown <b class="caret"></b></a> -\\\\-> -->\\n              <!--   <\\\\!--     <ul class="dropdown-menu"> -\\\\-> -->\\n              <!--   <\\\\!--       <li><a href="#">Action</a></li> -\\\\-> -->\\n              <!--   <\\\\!--       <li><a href="#">Another action</a></li> -\\\\-> -->\\n              <!--   <\\\\!--       <li><a href="#">Something else here</a></li> -\\\\-> -->\\n              <!--   <\\\\!--       <li class="divider"></li> -\\\\-> -->\\n              <!--   <\\\\!--       <li class="nav-header">Nav header</li> -\\\\-> -->\\n              <!--   <\\\\!--       <li><a href="#">Separated link</a></li> -\\\\-> -->\\n              <!--   <\\\\!--       <li><a href="#">One more separated link</a></li> -\\\\-> -->\\n              <!--   <\\\\!--     </ul> -\\\\-> -->\\n              <!-- \\t<\\\\!--   </li> -\\\\-> -->\\n              <!-- \\t<\\\\!-- </ul> -\\\\-> -->\\n\\t      <!-- \\t\', escape=False)'
p104
sI20
S'response.write(MENU(response.menu, ul_class="nav", li_class="navbar"))'
p105
sI21
S'response.write(\' -->\\n              <!-- </div> -->\\n            </div>\\n      \\t  </div>\\n    \\t</div>\\n\\t<!--end: Navigation-->\\n\\t\\n      </div>\\n      <!--end: Container-->\\n      \\n      <!--start: Container -->\\n      <div class="container">\\n\\t\\n\\t<!-- start: Flexslider -->\\n\\t<div class="slider">\\n\\t  \\n\\t  <div class="flexslider">\\n\\t    <ul class="slides">\\n\\n\\t      <li>\\n\\t\\t<img src="/distribuidora/static/custom/img/slider/slider1.jpg" alt="" />\\n\\t\\t<div class="slide-caption n hidden-phone">\\n\\t\\t  <h3>This is a caption</h3>\\n\\t\\t  <p>\\n\\t\\t    Lorem ipsum dolor sit amet, consectetuer adipiscing elit, sed diam nonummy nibh euismod tincidunt ut laoreet dolore magna aliquam erat volutpat. Ut wisi enim ad minim veniam, quis nostrud exerci tation ullamcorper suscipit lobortis nisl ut aliquip ex ea commodo consequat.\\n\\t\\t  </p>\\n\\t\\t</div>\\n\\t      </li>\\n\\n\\t      <li>\\n\\t\\t<img src="/distribuidora/static/custom/img/slider/slider2.jpg" alt="" />\\n\\t\\t<div class="slide-caption hidden-phone">\\n\\t\\t  <h3>This is a caption</h3>\\n\\t\\t  <p>\\n\\t\\t    Lorem ipsum dolor sit amet, consectetuer adipiscing elit, sed diam nonummy nibh euismod tincidunt ut laoreet dolore magna aliquam erat volutpat. Ut wisi enim ad minim veniam, quis nostrud exerci tation ullamcorper suscipit lobortis nisl ut aliquip ex ea commodo consequat.\\n\\t\\t  </p>\\n\\t\\t</div>\\n\\t      </li>\\n\\n\\t      <li>\\n\\t\\t<img src="/distribuidora/static/custom/img/slider/slider3.jpg" alt="" />\\n\\t      </li>\\n\\n\\t    </ul>\\n\\t  </div>\\n\\t  \\n\\t</div>\\n\\t<!-- end: Flexslider -->\\n\\n      \\t<!-- start: Hero Unit - Main hero unit for a primary marketing message or call to action -->\\n      \\t<div class="hero-unit">\\n          <p>\\n\\t    This is a template for a simple marketing or informational website. It includes a large callout called the hero unit and three supporting pieces of content. Use it as a starting point to create something more unique.\\n\\t  </p>\\n          <p><a class="btn btn-success btn-large">Learn more &raquo;</a></p>\\n      \\t</div>\\n\\t<!-- end: Hero Unit -->\\n\\n      \\t<!-- start: Row -->\\n      \\t<div class="row">\\n\\t  \\n          <div class="span4">\\n            <div class="icons-box">\\n\\t      <i class="ico-ok circle big"></i>\\n\\t      <div class="title"><h3>Easy to use</h3></div>\\n\\t      <p>\\n\\t\\tLorem ipsum dolor sit amet, consectetuer adipiscing elit, sed diam nonummy nibh euismod tincidunt ut laoreet dolore magna aliquam erat volutpat.\\n\\t      </p>\\n\\t      <div class="clear"></div>\\n\\t    </div>\\n          </div>\\n\\n          <div class="span4">\\n            <div class="icons-box">\\n\\t      <i class="ico-ipad circle big"></i>\\n\\t      <div class="title"><h3>Responsive</h3></div>\\n\\t      <p>\\n\\t\\tLorem ipsum dolor sit amet, consectetuer adipiscing elit, sed diam nonummy nibh euismod tincidunt ut laoreet dolore magna aliquam erat volutpat.\\n\\t      </p>\\n\\t      <div class="clear"></div>\\n\\t    </div>\\n          </div>\\n\\n          <div class="span4">\\n            <div class="icons-box">\\n\\t      <i class="ico-heart circle big"></i>\\n\\t      <div class="title"><h3>User friendly</h3></div>\\n\\t      <p>\\n\\t\\tLorem ipsum dolor sit amet, consectetuer adipiscing elit, sed diam nonummy nibh euismod tincidunt ut laoreet dolore magna aliquam erat volutpat.\\n\\t      </p>\\n\\t      <div class="clear"></div>\\n\\t    </div>\\n          </div>\\n\\n      \\t</div>\\n\\t<!-- end: Row -->\\n      \\t\\n\\t<hr>\\n\\t\\n\\t<!-- start Clients List -->\\t\\n\\t<div class="clients-carousel">\\n\\t  \\n\\t  <ul class="slides clients">\\n\\t    <li><img src="/distribuidora/static/custom/img/logos/1.png" alt=""/></li>\\n\\t    <li><img src="/distribuidora/static/custom/img/logos/2.png" alt=""/></li>\\t\\n\\t    <li><img src="/distribuidora/static/custom/img/logos/3.png" alt=""/></li>\\n\\t    <li><img src="/distribuidora/static/custom/img/logos/4.png" alt=""/></li>\\n\\t    <li><img src="/distribuidora/static/custom/img/logos/5.png" alt=""/></li>\\n\\t    <li><img src="/distribuidora/static/custom/img/logos/6.png" alt=""/></li>\\n\\t    <li><img src="/distribuidora/static/custom/img/logos/7.png" alt=""/></li>\\n\\t    <li><img src="/distribuidora/static/custom/img/logos/8.png" alt=""/></li>\\n\\t    <li><img src="/distribuidora/static/custom/img/logos/9.png" alt=""/></li>\\n\\t    <li><img src="/distribuidora/static/custom/img/logos/10.png" alt=""/></li>\\t\\t\\n\\t  </ul>\\n\\t  \\n\\t</div>\\n\\t<!-- end Clients List -->\\n\\t\\n\\t<hr>\\n\\t\\n\\t<!-- start: Row -->\\n\\t<div class="row">\\n\\t  \\n\\t  <!-- start: Icon Boxes -->\\n\\t  <div class="icons-box-vert-container">\\n\\n\\t    <!-- start: Icon Box Start -->\\n\\t    <div class="span6">\\n\\t      <div class="icons-box-vert">\\n\\t\\t<i class="ico-ok ico-color circle-color big"></i>\\n\\t\\t<div class="icons-box-vert-info">\\n\\t\\t  <h3>Easy to use</h3>\\n\\t\\t  <p>Lorem ipsum dolor sit amet, consectetuer adipiscing elit, sed diam nonummy nibh euismod tincidunt ut laoreet dolore magna aliquam erat volutpat.</p>\\n\\t\\t</div>\\n\\t\\t<div class="clear"></div>\\n\\t      </div>\\n\\t    </div>\\n\\t    <!-- end: Icon Box-->\\n\\n\\t    <!-- start: Icon Box Start -->\\n\\t    <div class="span6">\\n\\t      <div class="icons-box-vert">\\n\\t\\t<i class="ico-cup  ico-white circle-color-full big-color"></i>\\n\\t\\t<div class="icons-box-vert-info">\\n\\t\\t  <h3>Best choice</h3>\\n\\t\\t  <p>Lorem ipsum dolor sit amet, consectetuer adipiscing elit, sed diam nonummy nibh euismod tincidunt ut laoreet dolore magna aliquam erat volutpat.</p>\\n\\t\\t</div>\\n\\t\\t<div class="clear"></div>\\n\\t      </div>\\n\\t    </div>\\n\\t    <!-- end: Icon Box -->\\n\\n\\t    <!-- start: Icon Box Start -->\\n\\t    <div class="span6">\\n\\t      <div class="icons-box-vert">\\n\\t\\t<i class="ico-ipad ico-color circle-color big"></i>\\n\\t\\t<div class="icons-box-vert-info">\\n\\t\\t  <h3>Fully Responsive</h3>\\n\\t\\t  <p>Lorem ipsum dolor sit amet, consectetuer adipiscing elit, sed diam nonummy nibh euismod tincidunt ut laoreet dolore magna aliquam erat volutpat.</p>\\n\\t\\t</div>\\n\\t\\t<div class="clear"></div>\\n\\t      </div>\\n\\t    </div>\\n\\t    <!-- end: Icon Box -->\\n\\n\\t    <!-- start: Icon Box Start -->\\n\\t    <div class="span6">\\n\\t      <div class="icons-box-vert">\\n\\t\\t<i class="ico-thumbs-up  ico-white circle-color-full big-color"></i>\\n\\t\\t<div class="icons-box-vert-info">\\n\\t\\t  <h3>Social Network</h3>\\n\\t\\t  <p>Lorem ipsum dolor sit amet, consectetuer adipiscing elit, sed diam nonummy nibh euismod tincidunt ut laoreet dolore magna aliquam erat volutpat.</p>\\n\\t\\t</div>\\n\\t\\t<div class="clear"></div>\\n\\t      </div>\\n\\t    </div>\\n\\t    <!-- end: Icon Box -->\\n\\n\\t  </div>\\n\\t  <!-- end: Icon Boxes -->\\n\\t  <div class="clear"></div>\\n\\t</div>\\n\\t<!-- end: Row -->\\n\\t\\n\\t<hr>\\n\\t\\n      </div>\\n      <!--end: Container-->\\n      <!-- MODAL FOR CONTACT -->\\n      <!-- Modal -->\\n      <div class="modal fade" id="myModal" tabindex="-1" role="dialog" aria-labelledby="myModalLabel" aria-hidden="true">\\n\\t<div class="modal-dialog">\\n\\t  <div class="modal-content">\\n\\t    <div class="modal-header">\\n\\t      <button type="button" class="close" data-dismiss="modal" aria-hidden="true">&times;</button>\\n\\t      <h4 class="modal-title" id="myModalLabel">Contactanos</h4>\\n\\t    </div>\\n\\t    <div class="modal-body">\\n\\t      <div class="row centered">\\n\\t\\t<div>\\n\\t\\t  <!-- \', escape=False)'
p106
sI22
S'response.write(crud.create(db.contacto))'
p107
sI23
S'response.write(\' -->\\n\\t\\t</div>\\n\\t\\t<div class="col-md-12"><p>Como alternativa para tus consultas puedes contactarte con: info@xignus.com.ar o al +54 351 6485781</p></div>\\n\\t      </div>\\n\\t    </div>\\n\\t  </div><!-- /.modal-content -->\\n\\t</div><!-- /.modal-dialog -->\\n      </div><!-- /.modal -->\\n\\n      <!--start: Container -->\\n      <div class="container">\\t\\t\\n\\n      \\t<!-- start: Footer Menu -->\\n\\t<div id="footer-menu" class="hidden-tablet hidden-phone">\\n\\n\\t  <!-- start: Container -->\\n\\t  <div class="container">\\n\\t    \\n\\t    <!-- start: Row -->\\n\\t    <div class="row">\\n\\n\\t      <!-- start: Footer Menu Logo -->\\n\\t      <div class="span1">\\n\\t\\t<div id="footer-menu-logo">\\n\\t\\t  <a href="#"><img src="/distribuidora/static/custom/img/logo-footer-menu.png" alt="logo" /></a>\\n\\t\\t</div>\\n\\t      </div>\\n\\t      <!-- end: Footer Menu Logo -->\\n\\n\\t      <!-- start: Footer Menu Links-->\\n\\t      <div class="span10">\\n\\t\\t\\n\\t\\t<div id="footer-menu-links">\\n\\n\\t\\t  <ul id="footer-nav">\\n\\n\\t\\t    <li><a href="index.html">Start</a></li>\\n\\n\\t\\t    <li><a href="about.html">About</a></li>\\n\\n\\t\\t    <li><a href="services.html">Services</a></li>\\n\\n\\t\\t    <li><a href="pricing.html">Pricing</a></li>\\n\\t\\t    \\n\\t\\t    <li><a href="contact.html">Contact</a></li>\\n\\n\\t\\t  </ul>\\n\\n\\t\\t</div>\\n\\t\\t\\n\\t      </div>\\n\\t      <!-- end: Footer Menu Links-->\\n\\n\\t      <!-- start: Footer Menu Back To Top -->\\n\\t      <div class="span1">\\n\\t\\t\\n\\t\\t<div id="footer-menu-back-to-top">\\n\\t\\t  <a href="#"></a>\\n\\t\\t</div>\\n\\t\\t\\n\\t      </div>\\n\\t      <!-- end: Footer Menu Back To Top -->\\n\\t      \\n\\t    </div>\\n\\t    <!-- end: Row -->\\n\\t    \\n\\t  </div>\\n\\t  <!-- end: Container  -->\\t\\n\\n\\t</div>\\t\\n\\t<!-- end: Footer Menu -->\\n\\n\\t<!-- start: Footer -->\\n\\t<div id="footer">\\n\\t  \\n\\t  <!-- start: Container -->\\n\\t  <div class="container">\\n\\t    \\n\\t    <!-- start: Row -->\\n\\t    <div class="row">\\n\\n\\t      <!-- start: About -->\\n\\t      <div class="span3">\\n\\t\\t\\n\\t\\t<h3>About Us</h3>\\n\\t\\t<p>\\n\\t\\t  Lorem ipsum dolor sit amet, consectetuer adipiscing elit, sed diam nonummy nibh euismod tincidunt ut laoreet dolore magna aliquam erat volutpat. Ut wisi enim ad minim veniam, quis nostrud exerci tation ullamcorper suscipit lobortis nisl ut aliquip ex ea commodo consequat.\\n\\t\\t</p>\\n\\t\\t\\n\\t      </div>\\n\\t      <!-- end: About -->\\n\\n\\t      <!-- start: Photo Stream -->\\n\\t      <div class="span3">\\n\\t\\t\\n\\t\\t<h3>Photo Stream</h3>\\n\\t\\t<div class="flickr-widget">\\n\\t\\t  <script type="text/javascript" src="http://www.flickr.com/badge_code_v2.gne?count=9&display=latest&size=s&layout=x&source=user&user=29609591@N08"></script>\\n\\t\\t  <div class="clear"></div>\\n\\t\\t</div>\\n\\t\\t\\n\\t      </div>\\n\\t      <!-- end: Photo Stream -->\\n\\n\\t      \\n\\t      <div class="span6">\\n\\t\\t\\n\\t\\t<!-- start: Follow Us -->\\n\\t\\t<h3>Follow Us!</h3>\\n\\t\\t<ul class="social-grid">\\n\\t\\t  <li>\\n\\t\\t    <div class="social-item">\\t\\t\\t\\t\\n\\t\\t      <div class="social-info-wrap">\\n\\t\\t\\t<div class="social-info">\\n\\t\\t\\t  <div class="social-info-front social-twitter">\\n\\t\\t\\t    <a href="http://twitter.com"></a>\\n\\t\\t\\t  </div>\\n\\t\\t\\t  <div class="social-info-back social-twitter-hover">\\n\\t\\t\\t    <a href="http://twitter.com"></a>\\n\\t\\t\\t  </div>\\t\\n\\t\\t\\t</div>\\n\\t\\t      </div>\\n\\t\\t    </div>\\n\\t\\t  </li>\\n\\t\\t  <li>\\n\\t\\t    <div class="social-item">\\t\\t\\t\\t\\n\\t\\t      <div class="social-info-wrap">\\n\\t\\t\\t<div class="social-info">\\n\\t\\t\\t  <div class="social-info-front social-facebook">\\n\\t\\t\\t    <a href="http://facebook.com"></a>\\n\\t\\t\\t  </div>\\n\\t\\t\\t  <div class="social-info-back social-facebook-hover">\\n\\t\\t\\t    <a href="http://facebook.com"></a>\\n\\t\\t\\t  </div>\\n\\t\\t\\t</div>\\n\\t\\t      </div>\\n\\t\\t    </div>\\n\\t\\t  </li>\\n\\t\\t  <li>\\n\\t\\t    <div class="social-item">\\t\\t\\t\\t\\n\\t\\t      <div class="social-info-wrap">\\n\\t\\t\\t<div class="social-info">\\n\\t\\t\\t  <div class="social-info-front social-dribbble">\\n\\t\\t\\t    <a href="http://dribbble.com"></a>\\n\\t\\t\\t  </div>\\n\\t\\t\\t  <div class="social-info-back social-dribbble-hover">\\n\\t\\t\\t    <a href="http://dribbble.com"></a>\\n\\t\\t\\t  </div>\\t\\n\\t\\t\\t</div>\\n\\t\\t      </div>\\n\\t\\t    </div>\\n\\t\\t  </li>\\n\\t\\t  <li>\\n\\t\\t    <div class="social-item">\\t\\t\\t\\t\\n\\t\\t      <div class="social-info-wrap">\\n\\t\\t\\t<div class="social-info">\\n\\t\\t\\t  <div class="social-info-front social-flickr">\\n\\t\\t\\t    <a href="http://flickr.com"></a>\\n\\t\\t\\t  </div>\\n\\t\\t\\t  <div class="social-info-back social-flickr-hover">\\n\\t\\t\\t    <a href="http://flickr.com"></a>\\n\\t\\t\\t  </div>\\t\\n\\t\\t\\t</div>\\n\\t\\t      </div>\\n\\t\\t    </div>\\n\\t\\t  </li>\\n\\t\\t</ul>\\n\\t\\t<!-- end: Follow Us -->\\n\\t\\t\\n\\t\\t<!-- start: Newsletter -->\\n\\t\\t<form id="newsletter">\\n\\t\\t  <h3>Newsletter</h3>\\n\\t\\t  <p>Please leave us your email</p>\\n\\t\\t  <label for="newsletter_input">@:</label>\\n\\t\\t  <input type="text" id="newsletter_input"/>\\n\\t\\t  <input type="submit" id="newsletter_submit" value="submit">\\n\\t\\t</form>\\n\\t\\t<!-- end: Newsletter -->\\n\\t\\t\\n\\t      </div>\\n\\t      \\n\\t    </div>\\n\\t    <!-- end: Row -->\\t\\n\\t    \\n\\t  </div>\\n\\t  <!-- end: Container  -->\\n\\n\\t</div>\\n\\t<!-- end: Footer -->\\n\\t\\n      </div>\\n      <!-- end: Container  -->\\n\\n    </div>\\n    <!-- end: Wrapper  -->\\n\\n\\n    <!-- start: Copyright -->\\n    <div id="copyright">\\n      \\n      <!-- start: Container -->\\n      <div class="container">\\n\\t\\n\\t<p>\\n\\t  &copy; 2013, creativeLabs. <a href="http://bootstrapmaster.com" alt="Bootstrap Themes">Bootstrap Themes</a> Designed by BootstrapMaster in Poland <img src="/distribuidora/static/custom/img/poland.png" alt="Poland" style="margin-top:-4px">\\n\\t</p>\\n\\t\\n      </div>\\n      <!-- end: Container  -->\\n      \\n    </div>\\t\\n    <!-- end: Copyright -->\\n\\n    <!-- start: Java Script -->\\n    <!-- Placed at the end of the document so the pages load faster -->\\n    <script src="\', escape=False)'
p108
sI24
S"response.write(URL('static','custom/js/jquery-1.8.2.js'))"
p109
sI25
S'response.write(\'"></script>\\n    <script src="\', escape=False)'
p110
sI26
S"response.write(URL('static','custom/js/bootstrap.js'))"
p111
sI27
S'response.write(\'"></script>\\n    <script src="\', escape=False)'
p112
sI28
S"response.write(URL('static','custom/js/flexslider.js'))"
p113
sI29
S'response.write(\'"></script>\\n    <script src="\', escape=False)'
p114
sI30
S"response.write(URL('static','custom/js/carousel.js'))"
p115
sI31
S'response.write(\'"></script>\\n    <script def src="\', escape=False)'
p116
ssg83
S'()'
p117
sg85
S'<module>'
p118
sa(dp119
g62
S'/home/marco/trabajo/experimental/web2py/gluon/dal.py'
p120
sg64
(dp121
S'self'
p122
S'<DAL uri="sqlite://storage.sqlite">'
p123
sS'global ogetattr'
p124
S"<slot wrapper '__getattribute__' of 'object' objects>"
p125
sS'key'
p126
S"'contacto'"
p127
ssg70
I8460
sg71
(dp128
I8455
S'    def __getattr__(self, key):'
p129
sI8456
S"        if ogetattr(self, '_lazy_tables') and \\"
p130
sI8457
S"                key in ogetattr(self, '_LAZY_TABLES'):"
p131
sI8458
S'            tablename, fields, args = self._LAZY_TABLES.pop(key)'
p132
sI8459
S'            return self.lazy_define_table(tablename, *fields, **args)'
p133
sI8460
S'        return ogetattr(self, key)'
p134
sI8461
S''
sI8462
S'    def __setitem__(self, key, value):'
p135
sI8463
S'        osetattr(self, str(key), value)'
p136
sI8464
S''
ssg83
S'(self=<DAL uri="sqlite://storage.sqlite">, key=\'contacto\')'
p137
sg85
S'__getattr__'
p138
sasS'pyver'
p139
S'Python 2.7.8: /usr/bin/python (prefix: /usr)'
p140
sS'session'
p141
g57
(S's\x1a\x00\x00\x00<div><table></table></div>'
tRp142
sS'etype'
p143
S"<type 'exceptions.AttributeError'>"
p144
sS'date'
p145
S'Tue Jul 22 15:15:55 2014'
p146
sS'response'
p147
g57
(S's\x14 \x00\x00<div><table><tr><td style="font-weight:bold;vertical-align:top;">body</td><td style="vertical-align:top;">:</td><td><div>&lt;cStringIO.StringO object at 0x7fb7d9708a08&gt;</div></td></tr><tr><td style="font-weight:bold;vertical-align:top;">cookies</td><td style="vertical-align:top;">:</td><td><div><table><tr><td style="font-weight:bold;vertical-align:top;">session_id_distribuidora</td><td style="vertical-align:top;">:</td><td><div>127.0.0.1-ea47b01d-7d03-440f-9431-ba321337385b<table><tr><td style="font-weight:bold;vertical-align:top;">comment</td><td style="vertical-align:top;">:</td><td><div></div></td></tr><tr><td style="font-weight:bold;vertical-align:top;">domain</td><td style="vertical-align:top;">:</td><td><div></div></td></tr><tr><td style="font-weight:bold;vertical-align:top;">expires</td><td style="vertical-align:top;">:</td><td><div></div></td></tr><tr><td style="font-weight:bold;vertical-align:top;">httponly</td><td style="vertical-align:top;">:</td><td><div></div></td></tr><tr><td style="font-weight:bold;vertical-align:top;">max-age</td><td style="vertical-align:top;">:</td><td><div></div></td></tr><tr><td style="font-weight:bold;vertical-align:top;">path</td><td style="vertical-align:top;">:</td><td><div>/</div></td></tr><tr><td style="font-weight:bold;vertical-align:top;">secure</td><td style="vertical-align:top;">:</td><td><div></div></td></tr><tr><td style="font-weight:bold;vertical-align:top;">version</td><td style="vertical-align:top;">:</td><td><div></div></td></tr></table></div></td></tr></table></div></td></tr><tr><td style="font-weight:bold;vertical-align:top;">delimiters</td><td style="vertical-align:top;">:</td><td><div><table><tr><td><div>{{</div></td></tr><tr><td><div>}}</div></td></tr></table></div></td></tr><tr><td style="font-weight:bold;vertical-align:top;">files</td><td style="vertical-align:top;">:</td><td><div><table></table></div></td></tr><tr><td style="font-weight:bold;vertical-align:top;">flash</td><td style="vertical-align:top;">:</td><td><div>Welcome to web2py!</div></td></tr><tr><td style="font-weight:bold;vertical-align:top;">generic_patterns</td><td style="vertical-align:top;">:</td><td><div><table><tr><td><div>*</div></td></tr></table></div></td></tr><tr><td style="font-weight:bold;vertical-align:top;">google_analytics_id</td><td style="vertical-align:top;">:</td><td><div>None</div></td></tr><tr><td style="font-weight:bold;vertical-align:top;">headers</td><td style="vertical-align:top;">:</td><td><div><table><tr><td style="font-weight:bold;vertical-align:top;">X-Powered-By</td><td style="vertical-align:top;">:</td><td><div>web2py</div></td></tr></table></div></td></tr><tr><td style="font-weight:bold;vertical-align:top;">logo</td><td style="vertical-align:top;">:</td><td><div><a class="brand" href="http://www.web2py.com/"><b>web<span>2</span>py</b>&trade;&nbsp;</a></div></td></tr><tr><td style="font-weight:bold;vertical-align:top;">menu</td><td style="vertical-align:top;">:</td><td><div><table><tr><td><div><table><tr><td><div>Inicio</div></td></tr><tr><td><div>True</div></td></tr><tr><td><div>/distribuidora/default/index</div></td></tr><tr><td><div><table></table></div></td></tr></table></div></td></tr><tr><td><div><table><tr><td><div>Empresa</div></td></tr><tr><td><div>False</div></td></tr><tr><td><div>/distribuidora/default/servicios</div></td></tr><tr><td><div><table></table></div></td></tr></table></div></td></tr><tr><td><div><table><tr><td><div>Productos</div></td></tr><tr><td><div>False</div></td></tr><tr><td><div>/distribuidora/default/about</div></td></tr><tr><td><div><table></table></div></td></tr></table></div></td></tr><tr><td><div><table><tr><td><div>Servicios</div></td></tr><tr><td><div>False</div></td></tr><tr><td><div>/distribuidora/blog/index</div></td></tr><tr><td><div><table></table></div></td></tr></table></div></td></tr><tr><td><div><a class="contact"><i class="icon icon-envelope icon-white"></i>False#myModal</a></div></td></tr><tr><td><div><table><tr><td><div>Entrar</div></td></tr><tr><td><div>False</div></td></tr><tr><td><div>/distribuidora/default/user/login</div></td></tr><tr><td><div><table></table></div></td></tr></table></div></td></tr></table></div></td></tr><tr><td style="font-weight:bold;vertical-align:top;">meta</td><td style="vertical-align:top;">:</td><td><div><table><tr><td style="font-weight:bold;vertical-align:top;">author</td><td style="vertical-align:top;">:</td><td><div>Your Name &lt;you@example.com&gt;</div></td></tr><tr><td style="font-weight:bold;vertical-align:top;">generator</td><td style="vertical-align:top;">:</td><td><div>Web2py Web Framework</div></td></tr><tr><td style="font-weight:bold;vertical-align:top;">keywords</td><td style="vertical-align:top;">:</td><td><div>web2py, python, framework</div></td></tr></table></div></td></tr><tr><td style="font-weight:bold;vertical-align:top;">models_to_run</td><td style="vertical-align:top;">:</td><td><div><table><tr><td><div>^\\w+\\.py$</div></td></tr><tr><td><div>^default/\\w+\\.py$</div></td></tr><tr><td><div>^default/index/\\w+\\.py$</div></td></tr></table></div></td></tr><tr><td style="font-weight:bold;vertical-align:top;">postprocessing</td><td style="vertical-align:top;">:</td><td><div><table></table></div></td></tr><tr><td style="font-weight:bold;vertical-align:top;">session_client</td><td style="vertical-align:top;">:</td><td><div>127.0.0.1</div></td></tr><tr><td style="font-weight:bold;vertical-align:top;">session_cookie_compression_level</td><td style="vertical-align:top;">:</td><td><div>None</div></td></tr><tr><td style="font-weight:bold;vertical-align:top;">session_cookie_expires</td><td style="vertical-align:top;">:</td><td><div>None</div></td></tr><tr><td style="font-weight:bold;vertical-align:top;">session_cookie_key</td><td style="vertical-align:top;">:</td><td><div>None</div></td></tr><tr><td style="font-weight:bold;vertical-align:top;">session_data_name</td><td style="vertical-align:top;">:</td><td><div>session_data_distribuidora</div></td></tr><tr><td style="font-weight:bold;vertical-align:top;">session_file</td><td style="vertical-align:top;">:</td><td><div>&lt;open file &#x27;/home/marco/trabajo/experimental/web2py/applications/distribuidora/sessions/127.0.0.1-ea47b01d-7d03-440f-9431-ba321337385b&#x27;, mode &#x27;rb+&#x27; at 0x7fb7d915e9c0&gt;</div></td></tr><tr><td style="font-weight:bold;vertical-align:top;">session_filename</td><td style="vertical-align:top;">:</td><td><div>/home/marco/trabajo/experimental/web2py/applications/distribuidora/sessions/127.0.0.1-ea47b01d-7d03-440f-9431-ba321337385b</div></td></tr><tr><td style="font-weight:bold;vertical-align:top;">session_hash</td><td style="vertical-align:top;">:</td><td><div>4b7ba7eec48e12e9f7e166e30f3b38aa</div></td></tr><tr><td style="font-weight:bold;vertical-align:top;">session_id</td><td style="vertical-align:top;">:</td><td><div>127.0.0.1-ea47b01d-7d03-440f-9431-ba321337385b</div></td></tr><tr><td style="font-weight:bold;vertical-align:top;">session_id_name</td><td style="vertical-align:top;">:</td><td><div>session_id_distribuidora</div></td></tr><tr><td style="font-weight:bold;vertical-align:top;">session_locked</td><td style="vertical-align:top;">:</td><td><div>True</div></td></tr><tr><td style="font-weight:bold;vertical-align:top;">session_masterapp</td><td style="vertical-align:top;">:</td><td><div>distribuidora</div></td></tr><tr><td style="font-weight:bold;vertical-align:top;">session_new</td><td style="vertical-align:top;">:</td><td><div>False</div></td></tr><tr><td style="font-weight:bold;vertical-align:top;">session_storage_type</td><td style="vertical-align:top;">:</td><td><div>file</div></td></tr><tr><td style="font-weight:bold;vertical-align:top;">status</td><td style="vertical-align:top;">:</td><td><div>200</div></td></tr><tr><td style="font-weight:bold;vertical-align:top;">subtitle</td><td style="vertical-align:top;">:</td><td><div></div></td></tr><tr><td style="font-weight:bold;vertical-align:top;">title</td><td style="vertical-align:top;">:</td><td><div>Distribuidora</div></td></tr><tr><td style="font-weight:bold;vertical-align:top;">view</td><td style="vertical-align:top;">:</td><td><div>default/index.html</div></td></tr></table></div>'
tRp148
sS'locals'
p149
(dp150
S'self'
p151
S'<DAL uri="sqlite://storage.sqlite">'
p152
sS'key'
p153
S"'contacto'"
p154
sssS'traceback'
p155
S'Traceback (most recent call last):\n  File "/home/marco/trabajo/experimental/web2py/gluon/restricted.py", line 221, in restricted\n    exec ccode in environment\n  File "/home/marco/trabajo/experimental/web2py/applications/distribuidora/views/default/index.html", line 22, in <module>\n    <li class="icon icon-ok"><a href="#">Amet turpis feugiat</a></li>\n  File "/home/marco/trabajo/experimental/web2py/gluon/dal.py", line 8460, in __getattr__\n    return ogetattr(self, key)\nAttributeError: \'DAL\' object has no attribute \'contacto\'\n'
p156
s.